

Microchip MPLAB XC8 Assembler V2.41 build 20230208172133 
                                                                                               Wed Sep 27 20:40:23 2023

Microchip MPLAB XC8 C Compiler v2.41 (Free license) build 20230208172133 Og1 
     1                           	processor	16F877A
     2                           	pagewidth 120
     3                           	opt	flic
     4                           	psect	cinit,global,class=CODE,merge=1,delta=2
     5                           	psect	bssBANK0,global,class=BANK0,space=1,delta=1,noexec
     6                           	psect	cstackCOMMON,global,class=COMMON,space=1,delta=1,noexec
     7                           	psect	cstackBANK0,global,class=BANK0,space=1,delta=1,noexec
     8                           	psect	maintext,global,class=CODE,split=1,delta=2
     9                           	psect	text1,local,class=CODE,merge=1,delta=2,group=1
    10                           	psect	text2,local,class=CODE,merge=1,delta=2,group=1
    11                           	psect	text3,local,class=CODE,merge=1,delta=2,group=1
    12                           	psect	text4,local,class=CODE,merge=1,delta=2,group=1
    13                           	psect	text5,local,class=CODE,merge=1,delta=2,group=1
    14                           	psect	text6,local,class=CODE,merge=1,delta=2
    15                           	psect	text7,local,class=CODE,merge=1,delta=2,group=1
    16                           	psect	text8,local,class=CODE,merge=1,delta=2,group=1
    17                           	psect	text9,local,class=CODE,merge=1,delta=2
    18                           	psect	text10,local,class=CODE,merge=1,delta=2
    19                           	psect	text11,local,class=CODE,merge=1,delta=2
    20                           	psect	config,global,abs,ovrld,class=CONFIG,space=4,delta=2,noexec
    21                           	dabs	1,0x7E,2
    22     0000                     
    23                           ; Generated 22/03/2023 GMT
    24                           ; 
    25                           ; Copyright © 2023, Microchip Technology Inc. and its subsidiaries ("Microchip")
    26                           ; All rights reserved.
    27                           ; 
    28                           ; This software is developed by Microchip Technology Inc. and its subsidiaries ("Microch
      +                          ip").
    29                           ; 
    30                           ; Redistribution and use in source and binary forms, with or without modification, are
    31                           ; permitted provided that the following conditions are met:
    32                           ; 
    33                           ;     1. Redistributions of source code must retain the above copyright notice, this lis
      +                          t of
    34                           ;        conditions and the following disclaimer.
    35                           ; 
    36                           ;     2. Redistributions in binary form must reproduce the above copyright notice, this 
      +                          list
    37                           ;        of conditions and the following disclaimer in the documentation and/or other
    38                           ;        materials provided with the distribution. Publication is not required when
    39                           ;        this file is used in an embedded application.
    40                           ; 
    41                           ;     3. Microchip's name may not be used to endorse or promote products derived from th
      +                          is
    42                           ;        software without specific prior written permission.
    43                           ; 
    44                           ; THIS SOFTWARE IS PROVIDED BY MICROCHIP "AS IS" AND ANY EXPRESS OR IMPLIED WARRANTIES,
    45                           ; INCLUDING, BUT NOT LIMITED TO, THE IMPLIED WARRANTIES OF MERCHANTABILITY AND FITNESS F
      +                          OR
    46                           ; PURPOSE ARE DISCLAIMED.  IN NO EVENT SHALL MICROCHIP BE LIABLE FOR ANY DIRECT, INDIREC
      +                          T,
    47                           ; INCIDENTAL, SPECIAL, EXEMPLARY, OR CONSEQUENTIAL DAMAGES (INCLUDING BUT NOT LIMITED TO
    48                           ; PROCUREMENT OF SUBSTITUTE GOODS OR SERVICES; LOSS OF USE, DATA OR PROFITS; OR BUSINESS
    49                           ; INTERRUPTION) HOWSOEVER CAUSED AND ON ANY THEORY OF LIABILITY, WHETHER IN CONTRACT, ST
      +                          RICT
    50                           ; LIABILITY, OR TORT (INCLUDING NEGLIGENCE OR OTHERWISE) ARISING IN ANY WAY OUT OF THE U
      +                          SE OF
    51                           ; THIS SOFTWARE, EVEN IF ADVISED OF THE POSSIBILITY OF SUCH DAMAGE.
    52                           ; 
    53                           ; 
    54                           ; Code-generator required, PIC16F877A Definitions
    55                           ; 
    56                           ; SFR Addresses
    57     0000                     	;# 
    58     0001                     	;# 
    59     0002                     	;# 
    60     0003                     	;# 
    61     0004                     	;# 
    62     0005                     	;# 
    63     0006                     	;# 
    64     0007                     	;# 
    65     0008                     	;# 
    66     0009                     	;# 
    67     000A                     	;# 
    68     000B                     	;# 
    69     000C                     	;# 
    70     000D                     	;# 
    71     000E                     	;# 
    72     000E                     	;# 
    73     000F                     	;# 
    74     0010                     	;# 
    75     0011                     	;# 
    76     0012                     	;# 
    77     0013                     	;# 
    78     0014                     	;# 
    79     0015                     	;# 
    80     0015                     	;# 
    81     0016                     	;# 
    82     0017                     	;# 
    83     0018                     	;# 
    84     0019                     	;# 
    85     001A                     	;# 
    86     001B                     	;# 
    87     001B                     	;# 
    88     001C                     	;# 
    89     001D                     	;# 
    90     001E                     	;# 
    91     001F                     	;# 
    92     0081                     	;# 
    93     0085                     	;# 
    94     0086                     	;# 
    95     0087                     	;# 
    96     0088                     	;# 
    97     0089                     	;# 
    98     008C                     	;# 
    99     008D                     	;# 
   100     008E                     	;# 
   101     0091                     	;# 
   102     0092                     	;# 
   103     0093                     	;# 
   104     0094                     	;# 
   105     0098                     	;# 
   106     0099                     	;# 
   107     009C                     	;# 
   108     009D                     	;# 
   109     009E                     	;# 
   110     009F                     	;# 
   111     010C                     	;# 
   112     010D                     	;# 
   113     010E                     	;# 
   114     010F                     	;# 
   115     018C                     	;# 
   116     018D                     	;# 
   117     0000                     	;# 
   118     0001                     	;# 
   119     0002                     	;# 
   120     0003                     	;# 
   121     0004                     	;# 
   122     0005                     	;# 
   123     0006                     	;# 
   124     0007                     	;# 
   125     0008                     	;# 
   126     0009                     	;# 
   127     000A                     	;# 
   128     000B                     	;# 
   129     000C                     	;# 
   130     000D                     	;# 
   131     000E                     	;# 
   132     000E                     	;# 
   133     000F                     	;# 
   134     0010                     	;# 
   135     0011                     	;# 
   136     0012                     	;# 
   137     0013                     	;# 
   138     0014                     	;# 
   139     0015                     	;# 
   140     0015                     	;# 
   141     0016                     	;# 
   142     0017                     	;# 
   143     0018                     	;# 
   144     0019                     	;# 
   145     001A                     	;# 
   146     001B                     	;# 
   147     001B                     	;# 
   148     001C                     	;# 
   149     001D                     	;# 
   150     001E                     	;# 
   151     001F                     	;# 
   152     0081                     	;# 
   153     0085                     	;# 
   154     0086                     	;# 
   155     0087                     	;# 
   156     0088                     	;# 
   157     0089                     	;# 
   158     008C                     	;# 
   159     008D                     	;# 
   160     008E                     	;# 
   161     0091                     	;# 
   162     0092                     	;# 
   163     0093                     	;# 
   164     0094                     	;# 
   165     0098                     	;# 
   166     0099                     	;# 
   167     009C                     	;# 
   168     009D                     	;# 
   169     009E                     	;# 
   170     009F                     	;# 
   171     010C                     	;# 
   172     010D                     	;# 
   173     010E                     	;# 
   174     010F                     	;# 
   175     018C                     	;# 
   176     018D                     	;# 
   177     0008                     _PORTD	set	8
   178     0007                     _PORTC	set	7
   179     001E                     _ADRESH	set	30
   180     001F                     _ADCON0	set	31
   181     009F                     _ADCON1	set	159
   182     0085                     _TRISA	set	133
   183     0087                     _TRISC	set	135
   184     0088                     _TRISD	set	136
   185     009E                     _ADRESL	set	158
   186                           
   187                           	psect	cinit
   188     07EC                     start_initialization:	
   189                           ; #config settings
   190                           
   191     07EC                     __initialization:
   192                           
   193                           ; Clear objects allocated to BANK0
   194     07EC  1283               	bcf	3,5	;RP0=0, select bank0
   195     07ED  1303               	bcf	3,6	;RP1=0, select bank0
   196     07EE  01E0               	clrf	__pbssBANK0& (0+127)
   197     07EF  01E1               	clrf	(__pbssBANK0+1)& (0+127)
   198     07F0  01E2               	clrf	(__pbssBANK0+2)& (0+127)
   199     07F1  01E3               	clrf	(__pbssBANK0+3)& (0+127)
   200     07F2  01E4               	clrf	(__pbssBANK0+4)& (0+127)
   201     07F3  01E5               	clrf	(__pbssBANK0+5)& (0+127)
   202     07F4  01E6               	clrf	(__pbssBANK0+6)& (0+127)
   203     07F5  01E7               	clrf	(__pbssBANK0+7)& (0+127)
   204     07F6  01E8               	clrf	(__pbssBANK0+8)& (0+127)
   205     07F7  01E9               	clrf	(__pbssBANK0+9)& (0+127)
   206     07F8  01EA               	clrf	(__pbssBANK0+10)& (0+127)
   207     07F9  01EB               	clrf	(__pbssBANK0+11)& (0+127)
   208     07FA  01EC               	clrf	(__pbssBANK0+12)& (0+127)
   209     07FB  01ED               	clrf	(__pbssBANK0+13)& (0+127)
   210     07FC                     end_of_initialization:	
   211                           ;End of C runtime variable initialization code
   212                           
   213     07FC                     __end_of__initialization:
   214     07FC  0183               	clrf	3
   215     07FD  120A  118A  298A   	ljmp	_main	;jump to C main() function
   216                           
   217                           	psect	bssBANK0
   218     0060                     __pbssBANK0:
   219     0060                     Lcd_printing@F897:
   220     0060                     	ds	6
   221     0066                     _result:
   222     0066                     	ds	2
   223     0068                     _value:
   224     0068                     	ds	2
   225     006A                     _value_lsb:
   226     006A                     	ds	2
   227     006C                     _value_msb:
   228     006C                     	ds	2
   229                           
   230                           	psect	cstackCOMMON
   231     0070                     __pcstackCOMMON:
   232     0070                     ?_Configuration:
   233     0070                     ?_Lcd_command:	
   234                           ; 1 bytes @ 0x0
   235                           
   236     0070                     ??_Lcd_command:	
   237                           ; 1 bytes @ 0x0
   238                           
   239     0070                     ?_main:	
   240                           ; 1 bytes @ 0x0
   241                           
   242     0070                     ?_Lcd_display:	
   243                           ; 1 bytes @ 0x0
   244                           
   245     0070                     ??_Lcd_display:	
   246                           ; 1 bytes @ 0x0
   247                           
   248     0070                     ?__Umul8_16:	
   249                           ; 1 bytes @ 0x0
   250                           
   251     0070                     ?___lwdiv:	
   252                           ; 2 bytes @ 0x0
   253                           
   254     0070                     ?___lwmod:	
   255                           ; 2 bytes @ 0x0
   256                           
   257     0070                     ?___xxtofl:	
   258                           ; 2 bytes @ 0x0
   259                           
   260     0070                     __Umul8_16@multiplicand:	
   261                           ; 4 bytes @ 0x0
   262                           
   263     0070                     ___lwdiv@divisor:	
   264                           ; 1 bytes @ 0x0
   265                           
   266     0070                     ___lwmod@divisor:	
   267                           ; 2 bytes @ 0x0
   268                           
   269     0070                     ___xxtofl@val:	
   270                           ; 2 bytes @ 0x0
   271                           
   272                           
   273                           ; 4 bytes @ 0x0
   274     0070                     	ds	2
   275     0072                     ??__Umul8_16:
   276     0072                     Lcd_command@cmd:	
   277                           ; 1 bytes @ 0x2
   278                           
   279     0072                     Lcd_display@data:	
   280                           ; 1 bytes @ 0x2
   281                           
   282     0072                     ___lwdiv@dividend:	
   283                           ; 1 bytes @ 0x2
   284                           
   285     0072                     ___lwmod@dividend:	
   286                           ; 2 bytes @ 0x2
   287                           
   288                           
   289                           ; 2 bytes @ 0x2
   290     0072                     	ds	1
   291     0073                     ??_Configuration:
   292                           
   293                           ; 1 bytes @ 0x3
   294     0073                     	ds	1
   295     0074                     ??___lwdiv:
   296     0074                     ??___lwmod:	
   297                           ; 1 bytes @ 0x4
   298                           
   299     0074                     ??___xxtofl:	
   300                           ; 1 bytes @ 0x4
   301                           
   302     0074                     ___lwmod@counter:	
   303                           ; 1 bytes @ 0x4
   304                           
   305     0074                     ___lwdiv@quotient:	
   306                           ; 1 bytes @ 0x4
   307                           
   308     0074                     __Umul8_16@product:	
   309                           ; 2 bytes @ 0x4
   310                           
   311                           
   312                           ; 2 bytes @ 0x4
   313     0074                     	ds	2
   314     0076                     ___lwdiv@counter:
   315     0076                     __Umul8_16@word_mpld:	
   316                           ; 1 bytes @ 0x6
   317                           
   318                           
   319                           ; 2 bytes @ 0x6
   320     0076                     	ds	1
   321     0077                     ?_Lcd_printing:
   322     0077                     Lcd_printing@value:	
   323                           ; 1 bytes @ 0x7
   324                           
   325                           
   326                           ; 2 bytes @ 0x7
   327     0077                     	ds	1
   328     0078                     __Umul8_16@multiplier:
   329     0078                     ___xxtofl@sign:	
   330                           ; 1 bytes @ 0x8
   331                           
   332                           
   333                           ; 1 bytes @ 0x8
   334     0078                     	ds	1
   335     0079                     ??_Lcd_printing:
   336     0079                     ___xxtofl@exp:	
   337                           ; 1 bytes @ 0x9
   338                           
   339                           
   340                           ; 1 bytes @ 0x9
   341     0079                     	ds	1
   342     007A                     ___xxtofl@arg:
   343                           
   344                           ; 4 bytes @ 0xA
   345     007A                     	ds	4
   346                           
   347                           	psect	cstackBANK0
   348     0020                     __pcstackBANK0:
   349     0020                     ?___fldiv:
   350     0020                     ___fldiv@a:	
   351                           ; 4 bytes @ 0x0
   352                           
   353     0020                     Lcd_printing@space:	
   354                           ; 4 bytes @ 0x0
   355                           
   356                           
   357                           ; 6 bytes @ 0x0
   358     0020                     	ds	4
   359     0024                     ___fldiv@b:
   360                           
   361                           ; 4 bytes @ 0x4
   362     0024                     	ds	2
   363     0026                     Lcd_printing@temp:
   364                           
   365                           ; 2 bytes @ 0x6
   366     0026                     	ds	2
   367     0028                     ??___fldiv:
   368     0028                     Lcd_printing@i:	
   369                           ; 1 bytes @ 0x8
   370                           
   371                           
   372                           ; 2 bytes @ 0x8
   373     0028                     	ds	5
   374     002D                     ___fldiv@rem:
   375                           
   376                           ; 4 bytes @ 0xD
   377     002D                     	ds	4
   378     0031                     ___fldiv@sign:
   379                           
   380                           ; 1 bytes @ 0x11
   381     0031                     	ds	1
   382     0032                     ___fldiv@new_exp:
   383                           
   384                           ; 2 bytes @ 0x12
   385     0032                     	ds	2
   386     0034                     ___fldiv@grs:
   387                           
   388                           ; 4 bytes @ 0x14
   389     0034                     	ds	4
   390     0038                     ___fldiv@bexp:
   391                           
   392                           ; 1 bytes @ 0x18
   393     0038                     	ds	1
   394     0039                     ___fldiv@aexp:
   395                           
   396                           ; 1 bytes @ 0x19
   397     0039                     	ds	1
   398     003A                     ?___flmul:
   399     003A                     ___flmul@b:	
   400                           ; 4 bytes @ 0x1A
   401                           
   402                           
   403                           ; 4 bytes @ 0x1A
   404     003A                     	ds	4
   405     003E                     ___flmul@a:
   406                           
   407                           ; 4 bytes @ 0x1E
   408     003E                     	ds	4
   409     0042                     ??___flmul:
   410                           
   411                           ; 1 bytes @ 0x22
   412     0042                     	ds	5
   413     0047                     ___flmul@sign:
   414                           
   415                           ; 1 bytes @ 0x27
   416     0047                     	ds	1
   417     0048                     ___flmul@grs:
   418                           
   419                           ; 4 bytes @ 0x28
   420     0048                     	ds	4
   421     004C                     ___flmul@aexp:
   422                           
   423                           ; 1 bytes @ 0x2C
   424     004C                     	ds	1
   425     004D                     ___flmul@bexp:
   426                           
   427                           ; 1 bytes @ 0x2D
   428     004D                     	ds	1
   429     004E                     ___flmul@prod:
   430                           
   431                           ; 4 bytes @ 0x2E
   432     004E                     	ds	4
   433     0052                     ___flmul@temp:
   434                           
   435                           ; 2 bytes @ 0x32
   436     0052                     	ds	2
   437     0054                     ?___fltol:
   438     0054                     ___fltol@f1:	
   439                           ; 4 bytes @ 0x34
   440                           
   441                           
   442                           ; 4 bytes @ 0x34
   443     0054                     	ds	4
   444     0058                     ??___fltol:
   445                           
   446                           ; 1 bytes @ 0x38
   447     0058                     	ds	4
   448     005C                     ___fltol@sign1:
   449                           
   450                           ; 1 bytes @ 0x3C
   451     005C                     	ds	1
   452     005D                     ___fltol@exp1:
   453                           
   454                           ; 1 bytes @ 0x3D
   455     005D                     	ds	1
   456     005E                     ??_main:
   457                           
   458                           ; 1 bytes @ 0x3E
   459     005E                     	ds	2
   460                           
   461                           	psect	maintext
   462     018A                     __pmaintext:	
   463 ;;
   464 ;;Main: autosize = 0, tempsize = 2, incstack = 0, save=0
   465 ;;
   466 ;; *************** function _main *****************
   467 ;; Defined at:
   468 ;;		line 27 in file "AtoD_class.c"
   469 ;; Parameters:    Size  Location     Type
   470 ;;		None
   471 ;; Auto vars:     Size  Location     Type
   472 ;;		None
   473 ;; Return value:  Size  Location     Type
   474 ;;                  1    wreg      void 
   475 ;; Registers used:
   476 ;;		wreg, fsr0l, fsr0h, status,2, status,0, btemp+1, pclath, cstack
   477 ;; Tracked objects:
   478 ;;		On entry : B00/0
   479 ;;		On exit  : 0/0
   480 ;;		Unchanged: 0/0
   481 ;; Data sizes:     COMMON   BANK0   BANK1   BANK3   BANK2
   482 ;;      Params:         0       0       0       0       0
   483 ;;      Locals:         0       0       0       0       0
   484 ;;      Temps:          0       2       0       0       0
   485 ;;      Totals:         0       2       0       0       0
   486 ;;Total ram usage:        2 bytes
   487 ;; Hardware stack levels required when called: 2
   488 ;; This function calls:
   489 ;;		_Configuration
   490 ;;		_Lcd_command
   491 ;;		_Lcd_printing
   492 ;;		___fldiv
   493 ;;		___flmul
   494 ;;		___fltol
   495 ;;		___xxtofl
   496 ;; This function is called by:
   497 ;;		Startup code after reset
   498 ;; This function uses a non-reentrant model
   499 ;;
   500                           
   501     018A                     _main:	
   502                           ;psect for function _main
   503                           
   504     018A                     l1678:	
   505                           ;incstack = 0
   506                           ; Regs used in _main: [wreg-fsr0h+status,2+status,0+btemp+1+pclath+cstack]
   507                           
   508                           
   509                           ;AtoD_class.c: 28:    Configuration();
   510     018A  120A  118A  2058  120A  118A  	fcall	_Configuration
   511     018F                     l39:	
   512                           ;AtoD_class.c: 30:    while(1){
   513                           
   514                           
   515                           ;AtoD_class.c: 32:    Lcd_command(0x80);
   516     018F  3080               	movlw	128
   517     0190  120A  158A  2788  120A  118A  	fcall	_Lcd_command
   518     0195                     l1680:
   519                           
   520                           ;AtoD_class.c: 34:    ADCON0|=0x04;
   521     0195  1283               	bcf	3,5	;RP0=0, select bank0
   522     0196  1303               	bcf	3,6	;RP1=0, select bank0
   523     0197  151F               	bsf	31,2	;volatile
   524     0198                     l40:	
   525                           ;AtoD_class.c: 35:    while(ADCON0 & 0x04);
   526                           
   527     0198  191F               	btfsc	31,2	;volatile
   528     0199  299B               	goto	u2201
   529     019A  299C               	goto	u2200
   530     019B                     u2201:
   531     019B  2998               	goto	l40
   532     019C                     u2200:
   533     019C                     l1682:
   534                           
   535                           ;AtoD_class.c: 36:    value_msb=ADRESH;
   536     019C  081E               	movf	30,w	;volatile
   537     019D  00DE               	movwf	??_main
   538     019E  01DF               	clrf	??_main+1
   539     019F  085E               	movf	??_main,w
   540     01A0  00EC               	movwf	_value_msb
   541     01A1  085F               	movf	??_main+1,w
   542     01A2  00ED               	movwf	_value_msb+1
   543                           
   544                           ;AtoD_class.c: 37:    value_lsb=ADRESL;
   545     01A3  1683               	bsf	3,5	;RP0=1, select bank1
   546     01A4  1303               	bcf	3,6	;RP1=0, select bank1
   547     01A5  081E               	movf	30,w	;volatile
   548     01A6  1283               	bcf	3,5	;RP0=0, select bank0
   549     01A7  1303               	bcf	3,6	;RP1=0, select bank0
   550     01A8  00DE               	movwf	??_main
   551     01A9  01DF               	clrf	??_main+1
   552     01AA  085E               	movf	??_main,w
   553     01AB  00EA               	movwf	_value_lsb
   554     01AC  085F               	movf	??_main+1,w
   555     01AD  00EB               	movwf	_value_lsb+1
   556     01AE                     l1684:
   557                           
   558                           ;AtoD_class.c: 38:    value= (value_msb<<8)+ (value_lsb);
   559     01AE  086C               	movf	_value_msb,w
   560     01AF  00DF               	movwf	??_main+1
   561     01B0  01DE               	clrf	??_main
   562     01B1  086A               	movf	_value_lsb,w
   563     01B2  075E               	addwf	??_main,w
   564     01B3  00E8               	movwf	_value
   565     01B4  086B               	movf	_value_lsb+1,w
   566     01B5  1803               	skipnc
   567     01B6  0A6B               	incf	_value_lsb+1,w
   568     01B7  075F               	addwf	??_main+1,w
   569     01B8  00E9               	movwf	_value+1
   570     01B9                     l1686:
   571                           
   572                           ;AtoD_class.c: 39:    result=(((float)value/1023)*48);
   573     01B9  0868               	movf	_value,w
   574     01BA  00F0               	movwf	___xxtofl@val
   575     01BB  0869               	movf	_value+1,w
   576     01BC  00F1               	movwf	___xxtofl@val+1
   577     01BD  01F2               	clrf	___xxtofl@val+2
   578     01BE  01F3               	clrf	___xxtofl@val+3
   579     01BF  3000               	movlw	0
   580     01C0  120A  118A  2220  120A  118A  	fcall	___xxtofl
   581     01C5  0873               	movf	?___xxtofl+3,w
   582     01C6  1283               	bcf	3,5	;RP0=0, select bank0
   583     01C7  1303               	bcf	3,6	;RP1=0, select bank0
   584     01C8  00A7               	movwf	___fldiv@b+3
   585     01C9  0872               	movf	?___xxtofl+2,w
   586     01CA  00A6               	movwf	___fldiv@b+2
   587     01CB  0871               	movf	?___xxtofl+1,w
   588     01CC  00A5               	movwf	___fldiv@b+1
   589     01CD  0870               	movf	?___xxtofl,w
   590     01CE  00A4               	movwf	___fldiv@b
   591     01CF  3044               	movlw	68
   592     01D0  00A3               	movwf	___fldiv@a+3
   593     01D1  307F               	movlw	127
   594     01D2  00A2               	movwf	___fldiv@a+2
   595     01D3  30C0               	movlw	192
   596     01D4  00A1               	movwf	___fldiv@a+1
   597     01D5  3000               	movlw	0
   598     01D6  00A0               	movwf	___fldiv@a
   599     01D7  120A  118A  22D8  120A  118A  	fcall	___fldiv
   600     01DC  1283               	bcf	3,5	;RP0=0, select bank0
   601     01DD  1303               	bcf	3,6	;RP1=0, select bank0
   602     01DE  0823               	movf	?___fldiv+3,w
   603     01DF  00C1               	movwf	___flmul@a+3
   604     01E0  0822               	movf	?___fldiv+2,w
   605     01E1  00C0               	movwf	___flmul@a+2
   606     01E2  0821               	movf	?___fldiv+1,w
   607     01E3  00BF               	movwf	___flmul@a+1
   608     01E4  0820               	movf	?___fldiv,w
   609     01E5  00BE               	movwf	___flmul@a
   610     01E6  3042               	movlw	66
   611     01E7  00BD               	movwf	___flmul@b+3
   612     01E8  3040               	movlw	64
   613     01E9  00BC               	movwf	___flmul@b+2
   614     01EA  3000               	movlw	0
   615     01EB  00BB               	movwf	___flmul@b+1
   616     01EC  3000               	movlw	0
   617     01ED  00BA               	movwf	___flmul@b
   618     01EE  120A  118A  24A7  120A  118A  	fcall	___flmul
   619     01F3  1283               	bcf	3,5	;RP0=0, select bank0
   620     01F4  1303               	bcf	3,6	;RP1=0, select bank0
   621     01F5  083D               	movf	?___flmul+3,w
   622     01F6  00D7               	movwf	___fltol@f1+3
   623     01F7  083C               	movf	?___flmul+2,w
   624     01F8  00D6               	movwf	___fltol@f1+2
   625     01F9  083B               	movf	?___flmul+1,w
   626     01FA  00D5               	movwf	___fltol@f1+1
   627     01FB  083A               	movf	?___flmul,w
   628     01FC  00D4               	movwf	___fltol@f1
   629     01FD  120A  118A  2112  120A  118A  	fcall	___fltol
   630     0202  1283               	bcf	3,5	;RP0=0, select bank0
   631     0203  1303               	bcf	3,6	;RP1=0, select bank0
   632     0204  0855               	movf	?___fltol+1,w
   633     0205  00E7               	movwf	_result+1
   634     0206  0854               	movf	?___fltol,w
   635     0207  00E6               	movwf	_result
   636     0208                     l1688:
   637                           
   638                           ;AtoD_class.c: 40:    Lcd_printing(result);
   639     0208  0867               	movf	_result+1,w
   640     0209  00F8               	movwf	Lcd_printing@value+1
   641     020A  0866               	movf	_result,w
   642     020B  00F7               	movwf	Lcd_printing@value
   643     020C  120A  118A  20A5  120A  118A  	fcall	_Lcd_printing
   644     0211                     l1690:
   645                           
   646                           ;AtoD_class.c: 41:    _delay((unsigned long)((100)*(6000000/4000.0)));
   647     0211  30C3               	movlw	195
   648     0212  1283               	bcf	3,5	;RP0=0, select bank0
   649     0213  1303               	bcf	3,6	;RP1=0, select bank0
   650     0214  00DF               	movwf	??_main+1
   651     0215  30CC               	movlw	204
   652     0216  00DE               	movwf	??_main
   653     0217                     u2217:
   654     0217  0BDE               	decfsz	??_main,f
   655     0218  2A17               	goto	u2217
   656     0219  0BDF               	decfsz	??_main+1,f
   657     021A  2A17               	goto	u2217
   658     021B  0000               	nop
   659     021C  298F               	goto	l39
   660     021D  120A  118A  2800   	ljmp	start
   661     0220                     __end_of_main:
   662                           
   663                           	psect	text1
   664     0220                     __ptext1:	
   665 ;; *************** function ___xxtofl *****************
   666 ;; Defined at:
   667 ;;		line 10 in file "C:\Program Files\Microchip\xc8\v2.41\pic\sources\c90\common\xxtofl.c"
   668 ;; Parameters:    Size  Location     Type
   669 ;;  sign            1    wreg     unsigned char 
   670 ;;  val             4    0[COMMON] long 
   671 ;; Auto vars:     Size  Location     Type
   672 ;;  sign            1    8[COMMON] unsigned char 
   673 ;;  arg             4   10[COMMON] unsigned long 
   674 ;;  exp             1    9[COMMON] unsigned char 
   675 ;; Return value:  Size  Location     Type
   676 ;;                  4    0[COMMON] unsigned char 
   677 ;; Registers used:
   678 ;;		wreg, status,2, status,0, btemp+1
   679 ;; Tracked objects:
   680 ;;		On entry : 0/0
   681 ;;		On exit  : 0/0
   682 ;;		Unchanged: 0/0
   683 ;; Data sizes:     COMMON   BANK0   BANK1   BANK3   BANK2
   684 ;;      Params:         4       0       0       0       0
   685 ;;      Locals:         6       0       0       0       0
   686 ;;      Temps:          4       0       0       0       0
   687 ;;      Totals:        14       0       0       0       0
   688 ;;Total ram usage:       14 bytes
   689 ;; Hardware stack levels used: 1
   690 ;; This function calls:
   691 ;;		Nothing
   692 ;; This function is called by:
   693 ;;		_main
   694 ;; This function uses a non-reentrant model
   695 ;;
   696                           
   697     0220                     ___xxtofl:	
   698                           ;psect for function ___xxtofl
   699                           
   700                           
   701                           ;incstack = 0
   702                           ; Regs used in ___xxtofl: [wreg+status,2+status,0+btemp+1]
   703                           ;___xxtofl@sign stored from wreg
   704     0220  00F8               	movwf	___xxtofl@sign
   705     0221                     l1630:
   706     0221  0878               	movf	___xxtofl@sign,w
   707     0222  1903               	btfsc	3,2
   708     0223  2A25               	goto	u2061
   709     0224  2A26               	goto	u2060
   710     0225                     u2061:
   711     0225  2A3A               	goto	l1636
   712     0226                     u2060:
   713     0226                     l1632:
   714     0226  1FF3               	btfss	___xxtofl@val+3,7
   715     0227  2A29               	goto	u2071
   716     0228  2A2A               	goto	u2070
   717     0229                     u2071:
   718     0229  2A3A               	goto	l1636
   719     022A                     u2070:
   720     022A                     l1634:
   721     022A  0970               	comf	___xxtofl@val,w
   722     022B  00FA               	movwf	___xxtofl@arg
   723     022C  0971               	comf	___xxtofl@val+1,w
   724     022D  00FB               	movwf	___xxtofl@arg+1
   725     022E  0972               	comf	___xxtofl@val+2,w
   726     022F  00FC               	movwf	___xxtofl@arg+2
   727     0230  0973               	comf	___xxtofl@val+3,w
   728     0231  00FD               	movwf	___xxtofl@arg+3
   729     0232  0AFA               	incf	___xxtofl@arg,f
   730     0233  1903               	skipnz
   731     0234  0AFB               	incf	___xxtofl@arg+1,f
   732     0235  1903               	skipnz
   733     0236  0AFC               	incf	___xxtofl@arg+2,f
   734     0237  1903               	skipnz
   735     0238  0AFD               	incf	___xxtofl@arg+3,f
   736     0239  2A42               	goto	l583
   737     023A                     l1636:
   738     023A  0873               	movf	___xxtofl@val+3,w
   739     023B  00FD               	movwf	___xxtofl@arg+3
   740     023C  0872               	movf	___xxtofl@val+2,w
   741     023D  00FC               	movwf	___xxtofl@arg+2
   742     023E  0871               	movf	___xxtofl@val+1,w
   743     023F  00FB               	movwf	___xxtofl@arg+1
   744     0240  0870               	movf	___xxtofl@val,w
   745     0241  00FA               	movwf	___xxtofl@arg
   746     0242                     l583:
   747     0242  0873               	movf	___xxtofl@val+3,w
   748     0243  0472               	iorwf	___xxtofl@val+2,w
   749     0244  0471               	iorwf	___xxtofl@val+1,w
   750     0245  0470               	iorwf	___xxtofl@val,w
   751     0246  1D03               	skipz
   752     0247  2A49               	goto	u2081
   753     0248  2A4A               	goto	u2080
   754     0249                     u2081:
   755     0249  2A53               	goto	l1642
   756     024A                     u2080:
   757     024A                     l1638:
   758     024A  3000               	movlw	0
   759     024B  00F3               	movwf	?___xxtofl+3
   760     024C  3000               	movlw	0
   761     024D  00F2               	movwf	?___xxtofl+2
   762     024E  3000               	movlw	0
   763     024F  00F1               	movwf	?___xxtofl+1
   764     0250  3000               	movlw	0
   765     0251  00F0               	movwf	?___xxtofl
   766     0252  2AD7               	goto	l585
   767     0253                     l1642:
   768     0253  3096               	movlw	150
   769     0254  00F9               	movwf	___xxtofl@exp
   770     0255  2A63               	goto	l1648
   771     0256                     l1644:
   772     0256  3001               	movlw	1
   773     0257  00FF               	movwf	btemp+1
   774     0258  087F               	movf	btemp+1,w
   775     0259  07F9               	addwf	___xxtofl@exp,f
   776     025A                     l1646:
   777     025A  3001               	movlw	1
   778     025B                     u2095:
   779     025B  1003               	clrc
   780     025C  0CFD               	rrf	___xxtofl@arg+3,f
   781     025D  0CFC               	rrf	___xxtofl@arg+2,f
   782     025E  0CFB               	rrf	___xxtofl@arg+1,f
   783     025F  0CFA               	rrf	___xxtofl@arg,f
   784     0260  3EFF               	addlw	-1
   785     0261  1D03               	skipz
   786     0262  2A5B               	goto	u2095
   787     0263                     l1648:
   788     0263  30FE               	movlw	254
   789     0264  057D               	andwf	___xxtofl@arg+3,w
   790     0265  1D03               	btfss	3,2
   791     0266  2A68               	goto	u2101
   792     0267  2A69               	goto	u2100
   793     0268                     u2101:
   794     0268  2A56               	goto	l1644
   795     0269                     u2100:
   796     0269  2A85               	goto	l1656
   797     026A                     l1650:
   798     026A  3001               	movlw	1
   799     026B  00FF               	movwf	btemp+1
   800     026C  087F               	movf	btemp+1,w
   801     026D  07F9               	addwf	___xxtofl@exp,f
   802     026E                     l1652:
   803     026E  3001               	movlw	1
   804     026F  07FA               	addwf	___xxtofl@arg,f
   805     0270  3000               	movlw	0
   806     0271  1803               	skipnc
   807     0272  3001               	movlw	1
   808     0273  07FB               	addwf	___xxtofl@arg+1,f
   809     0274  3000               	movlw	0
   810     0275  1803               	skipnc
   811     0276  3001               	movlw	1
   812     0277  07FC               	addwf	___xxtofl@arg+2,f
   813     0278  3000               	movlw	0
   814     0279  1803               	skipnc
   815     027A  3001               	movlw	1
   816     027B  07FD               	addwf	___xxtofl@arg+3,f
   817     027C                     l1654:
   818     027C  3001               	movlw	1
   819     027D                     u2115:
   820     027D  1003               	clrc
   821     027E  0CFD               	rrf	___xxtofl@arg+3,f
   822     027F  0CFC               	rrf	___xxtofl@arg+2,f
   823     0280  0CFB               	rrf	___xxtofl@arg+1,f
   824     0281  0CFA               	rrf	___xxtofl@arg,f
   825     0282  3EFF               	addlw	-1
   826     0283  1D03               	skipz
   827     0284  2A7D               	goto	u2115
   828     0285                     l1656:
   829     0285  30FF               	movlw	255
   830     0286  057D               	andwf	___xxtofl@arg+3,w
   831     0287  1D03               	btfss	3,2
   832     0288  2A8A               	goto	u2121
   833     0289  2A8B               	goto	u2120
   834     028A                     u2121:
   835     028A  2A6A               	goto	l1650
   836     028B                     u2120:
   837     028B  2A97               	goto	l1660
   838     028C                     l1658:
   839     028C  3001               	movlw	1
   840     028D  02F9               	subwf	___xxtofl@exp,f
   841     028E  3001               	movlw	1
   842     028F  00F4               	movwf	??___xxtofl
   843     0290                     u2135:
   844     0290  1003               	clrc
   845     0291  0DFA               	rlf	___xxtofl@arg,f
   846     0292  0DFB               	rlf	___xxtofl@arg+1,f
   847     0293  0DFC               	rlf	___xxtofl@arg+2,f
   848     0294  0DFD               	rlf	___xxtofl@arg+3,f
   849     0295  0BF4               	decfsz	??___xxtofl,f
   850     0296  2A90               	goto	u2135
   851     0297                     l1660:
   852     0297  1BFC               	btfsc	___xxtofl@arg+2,7
   853     0298  2A9A               	goto	u2141
   854     0299  2A9B               	goto	u2140
   855     029A                     u2141:
   856     029A  2AA1               	goto	l596
   857     029B                     u2140:
   858     029B                     l1662:
   859     029B  3002               	movlw	2
   860     029C  0279               	subwf	___xxtofl@exp,w
   861     029D  1803               	skipnc
   862     029E  2AA0               	goto	u2151
   863     029F  2AA1               	goto	u2150
   864     02A0                     u2151:
   865     02A0  2A8C               	goto	l1658
   866     02A1                     u2150:
   867     02A1                     l596:
   868     02A1  1879               	btfsc	___xxtofl@exp,0
   869     02A2  2AA4               	goto	u2161
   870     02A3  2AA5               	goto	u2160
   871     02A4                     u2161:
   872     02A4  2AAD               	goto	l597
   873     02A5                     u2160:
   874     02A5                     l1664:
   875     02A5  30FF               	movlw	255
   876     02A6  05FA               	andwf	___xxtofl@arg,f
   877     02A7  30FF               	movlw	255
   878     02A8  05FB               	andwf	___xxtofl@arg+1,f
   879     02A9  307F               	movlw	127
   880     02AA  05FC               	andwf	___xxtofl@arg+2,f
   881     02AB  30FF               	movlw	255
   882     02AC  05FD               	andwf	___xxtofl@arg+3,f
   883     02AD                     l597:
   884     02AD  1003               	clrc
   885     02AE  0CF9               	rrf	___xxtofl@exp,f
   886     02AF                     l1666:
   887     02AF  0879               	movf	___xxtofl@exp,w
   888     02B0  00F4               	movwf	??___xxtofl
   889     02B1  01F5               	clrf	??___xxtofl+1
   890     02B2  01F6               	clrf	??___xxtofl+2
   891     02B3  01F7               	clrf	??___xxtofl+3
   892     02B4  3018               	movlw	24
   893     02B5                     u2175:
   894     02B5  1003               	clrc
   895     02B6  0DF4               	rlf	??___xxtofl,f
   896     02B7  0DF5               	rlf	??___xxtofl+1,f
   897     02B8  0DF6               	rlf	??___xxtofl+2,f
   898     02B9  0DF7               	rlf	??___xxtofl+3,f
   899     02BA                     u2170:
   900     02BA  3EFF               	addlw	-1
   901     02BB  1D03               	skipz
   902     02BC  2AB5               	goto	u2175
   903     02BD  0874               	movf	??___xxtofl,w
   904     02BE  04FA               	iorwf	___xxtofl@arg,f
   905     02BF  0875               	movf	??___xxtofl+1,w
   906     02C0  04FB               	iorwf	___xxtofl@arg+1,f
   907     02C1  0876               	movf	??___xxtofl+2,w
   908     02C2  04FC               	iorwf	___xxtofl@arg+2,f
   909     02C3  0877               	movf	??___xxtofl+3,w
   910     02C4  04FD               	iorwf	___xxtofl@arg+3,f
   911     02C5                     l1668:
   912     02C5  0878               	movf	___xxtofl@sign,w
   913     02C6  1903               	btfsc	3,2
   914     02C7  2AC9               	goto	u2181
   915     02C8  2ACA               	goto	u2180
   916     02C9                     u2181:
   917     02C9  2ACF               	goto	l1674
   918     02CA                     u2180:
   919     02CA                     l1670:
   920     02CA  1FF3               	btfss	___xxtofl@val+3,7
   921     02CB  2ACD               	goto	u2191
   922     02CC  2ACE               	goto	u2190
   923     02CD                     u2191:
   924     02CD  2ACF               	goto	l1674
   925     02CE                     u2190:
   926     02CE                     l1672:
   927     02CE  17FD               	bsf	___xxtofl@arg+3,7
   928     02CF                     l1674:
   929     02CF  087D               	movf	___xxtofl@arg+3,w
   930     02D0  00F3               	movwf	?___xxtofl+3
   931     02D1  087C               	movf	___xxtofl@arg+2,w
   932     02D2  00F2               	movwf	?___xxtofl+2
   933     02D3  087B               	movf	___xxtofl@arg+1,w
   934     02D4  00F1               	movwf	?___xxtofl+1
   935     02D5  087A               	movf	___xxtofl@arg,w
   936     02D6  00F0               	movwf	?___xxtofl
   937     02D7                     l585:
   938     02D7  0008               	return
   939     02D8                     __end_of___xxtofl:
   940                           
   941                           	psect	text2
   942     0112                     __ptext2:	
   943 ;; *************** function ___fltol *****************
   944 ;; Defined at:
   945 ;;		line 43 in file "C:\Program Files\Microchip\xc8\v2.41\pic\sources\c90\common\fltol.c"
   946 ;; Parameters:    Size  Location     Type
   947 ;;  f1              4   52[BANK0 ] unsigned char 
   948 ;; Auto vars:     Size  Location     Type
   949 ;;  exp1            1   61[BANK0 ] unsigned char 
   950 ;;  sign1           1   60[BANK0 ] unsigned char 
   951 ;; Return value:  Size  Location     Type
   952 ;;                  4   52[BANK0 ] long 
   953 ;; Registers used:
   954 ;;		wreg, status,2, status,0, btemp+1
   955 ;; Tracked objects:
   956 ;;		On entry : 0/0
   957 ;;		On exit  : 0/0
   958 ;;		Unchanged: 0/0
   959 ;; Data sizes:     COMMON   BANK0   BANK1   BANK3   BANK2
   960 ;;      Params:         0       4       0       0       0
   961 ;;      Locals:         0       2       0       0       0
   962 ;;      Temps:          0       4       0       0       0
   963 ;;      Totals:         0      10       0       0       0
   964 ;;Total ram usage:       10 bytes
   965 ;; Hardware stack levels used: 1
   966 ;; This function calls:
   967 ;;		Nothing
   968 ;; This function is called by:
   969 ;;		_main
   970 ;; This function uses a non-reentrant model
   971 ;;
   972                           
   973     0112                     ___fltol:	
   974                           ;psect for function ___fltol
   975                           
   976     0112                     l1304:	
   977                           ;incstack = 0
   978                           ; Regs used in ___fltol: [wreg+status,2+status,0+btemp+1]
   979                           
   980     0112  1003               	clrc
   981     0113  1283               	bcf	3,5	;RP0=0, select bank0
   982     0114  1303               	bcf	3,6	;RP1=0, select bank0
   983     0115  0D56               	rlf	___fltol@f1+2,w
   984     0116  0D57               	rlf	___fltol@f1+3,w
   985     0117  00DD               	movwf	___fltol@exp1
   986     0118  085D               	movf	___fltol@exp1,w
   987     0119  1D03               	btfss	3,2
   988     011A  291C               	goto	u1301
   989     011B  291D               	goto	u1300
   990     011C                     u1301:
   991     011C  2926               	goto	l1310
   992     011D                     u1300:
   993     011D                     l1306:
   994     011D  3000               	movlw	0
   995     011E  00D7               	movwf	?___fltol+3
   996     011F  3000               	movlw	0
   997     0120  00D6               	movwf	?___fltol+2
   998     0121  3000               	movlw	0
   999     0122  00D5               	movwf	?___fltol+1
  1000     0123  3000               	movlw	0
  1001     0124  00D4               	movwf	?___fltol
  1002     0125  2989               	goto	l336
  1003     0126                     l1310:
  1004     0126  0854               	movf	___fltol@f1,w
  1005     0127  00D8               	movwf	??___fltol
  1006     0128  0855               	movf	___fltol@f1+1,w
  1007     0129  00D9               	movwf	??___fltol+1
  1008     012A  0856               	movf	___fltol@f1+2,w
  1009     012B  00DA               	movwf	??___fltol+2
  1010     012C  0857               	movf	___fltol@f1+3,w
  1011     012D  00DB               	movwf	??___fltol+3
  1012     012E  301F               	movlw	31
  1013     012F                     u1315:
  1014     012F  1003               	clrc
  1015     0130  0CDB               	rrf	??___fltol+3,f
  1016     0131  0CDA               	rrf	??___fltol+2,f
  1017     0132  0CD9               	rrf	??___fltol+1,f
  1018     0133  0CD8               	rrf	??___fltol,f
  1019     0134                     u1310:
  1020     0134  3EFF               	addlw	-1
  1021     0135  1D03               	skipz
  1022     0136  292F               	goto	u1315
  1023     0137  0858               	movf	??___fltol,w
  1024     0138  00DC               	movwf	___fltol@sign1
  1025     0139                     l1312:
  1026     0139  17D6               	bsf	___fltol@f1+2,7
  1027     013A                     l1314:
  1028     013A  30FF               	movlw	255
  1029     013B  05D4               	andwf	___fltol@f1,f
  1030     013C  30FF               	movlw	255
  1031     013D  05D5               	andwf	___fltol@f1+1,f
  1032     013E  30FF               	movlw	255
  1033     013F  05D6               	andwf	___fltol@f1+2,f
  1034     0140  3000               	movlw	0
  1035     0141  05D7               	andwf	___fltol@f1+3,f
  1036     0142                     l1316:
  1037     0142  3096               	movlw	150
  1038     0143  02DD               	subwf	___fltol@exp1,f
  1039     0144                     l1318:
  1040     0144  1FDD               	btfss	___fltol@exp1,7
  1041     0145  2947               	goto	u1321
  1042     0146  2948               	goto	u1320
  1043     0147                     u1321:
  1044     0147  2962               	goto	l1330
  1045     0148                     u1320:
  1046     0148                     l1320:
  1047     0148  085D               	movf	___fltol@exp1,w
  1048     0149  3A80               	xorlw	128
  1049     014A  3E97               	addlw	151
  1050     014B  1803               	skipnc
  1051     014C  294E               	goto	u1331
  1052     014D  294F               	goto	u1330
  1053     014E                     u1331:
  1054     014E  2950               	goto	l1326
  1055     014F                     u1330:
  1056     014F  291D               	goto	l1306
  1057     0150                     l1326:
  1058     0150  3001               	movlw	1
  1059     0151                     u1345:
  1060     0151  1003               	clrc
  1061     0152  0CD7               	rrf	___fltol@f1+3,f
  1062     0153  0CD6               	rrf	___fltol@f1+2,f
  1063     0154  0CD5               	rrf	___fltol@f1+1,f
  1064     0155  0CD4               	rrf	___fltol@f1,f
  1065     0156  3EFF               	addlw	-1
  1066     0157  1D03               	skipz
  1067     0158  2951               	goto	u1345
  1068     0159                     l1328:
  1069     0159  3001               	movlw	1
  1070     015A  00FF               	movwf	btemp+1
  1071     015B  087F               	movf	btemp+1,w
  1072     015C  07DD               	addwf	___fltol@exp1,f
  1073     015D  1D03               	btfss	3,2
  1074     015E  2960               	goto	u1351
  1075     015F  2961               	goto	u1350
  1076     0160                     u1351:
  1077     0160  2950               	goto	l1326
  1078     0161                     u1350:
  1079     0161  2979               	goto	l1338
  1080     0162                     l1330:
  1081     0162  3020               	movlw	32
  1082     0163  025D               	subwf	___fltol@exp1,w
  1083     0164  1C03               	skipc
  1084     0165  2967               	goto	u1361
  1085     0166  2968               	goto	u1360
  1086     0167                     u1361:
  1087     0167  2974               	goto	l343
  1088     0168                     u1360:
  1089     0168  291D               	goto	l1306
  1090     0169                     l1336:
  1091     0169  3001               	movlw	1
  1092     016A  00D8               	movwf	??___fltol
  1093     016B                     u1375:
  1094     016B  1003               	clrc
  1095     016C  0DD4               	rlf	___fltol@f1,f
  1096     016D  0DD5               	rlf	___fltol@f1+1,f
  1097     016E  0DD6               	rlf	___fltol@f1+2,f
  1098     016F  0DD7               	rlf	___fltol@f1+3,f
  1099     0170  0BD8               	decfsz	??___fltol,f
  1100     0171  296B               	goto	u1375
  1101     0172  3001               	movlw	1
  1102     0173  02DD               	subwf	___fltol@exp1,f
  1103     0174                     l343:
  1104     0174  085D               	movf	___fltol@exp1,w
  1105     0175  1D03               	btfss	3,2
  1106     0176  2978               	goto	u1381
  1107     0177  2979               	goto	u1380
  1108     0178                     u1381:
  1109     0178  2969               	goto	l1336
  1110     0179                     u1380:
  1111     0179                     l1338:
  1112     0179  085C               	movf	___fltol@sign1,w
  1113     017A  1903               	btfsc	3,2
  1114     017B  297D               	goto	u1391
  1115     017C  297E               	goto	u1390
  1116     017D                     u1391:
  1117     017D  2989               	goto	l346
  1118     017E                     u1390:
  1119     017E                     l1340:
  1120     017E  09D4               	comf	___fltol@f1,f
  1121     017F  09D5               	comf	___fltol@f1+1,f
  1122     0180  09D6               	comf	___fltol@f1+2,f
  1123     0181  09D7               	comf	___fltol@f1+3,f
  1124     0182  0AD4               	incf	___fltol@f1,f
  1125     0183  1903               	skipnz
  1126     0184  0AD5               	incf	___fltol@f1+1,f
  1127     0185  1903               	skipnz
  1128     0186  0AD6               	incf	___fltol@f1+2,f
  1129     0187  1903               	skipnz
  1130     0188  0AD7               	incf	___fltol@f1+3,f
  1131     0189                     l346:
  1132     0189                     l336:
  1133     0189  0008               	return
  1134     018A                     __end_of___fltol:
  1135                           
  1136                           	psect	text3
  1137     04A7                     __ptext3:	
  1138 ;; *************** function ___flmul *****************
  1139 ;; Defined at:
  1140 ;;		line 8 in file "C:\Program Files\Microchip\xc8\v2.41\pic\sources\c90\common\sprcmul.c"
  1141 ;; Parameters:    Size  Location     Type
  1142 ;;  b               4   26[BANK0 ] long 
  1143 ;;  a               4   30[BANK0 ] long 
  1144 ;; Auto vars:     Size  Location     Type
  1145 ;;  prod            4   46[BANK0 ] struct .
  1146 ;;  grs             4   40[BANK0 ] unsigned long 
  1147 ;;  temp            2   50[BANK0 ] struct .
  1148 ;;  bexp            1   45[BANK0 ] unsigned char 
  1149 ;;  aexp            1   44[BANK0 ] unsigned char 
  1150 ;;  sign            1   39[BANK0 ] unsigned char 
  1151 ;; Return value:  Size  Location     Type
  1152 ;;                  4   26[BANK0 ] unsigned char 
  1153 ;; Registers used:
  1154 ;;		wreg, status,2, status,0, btemp+1, pclath, cstack
  1155 ;; Tracked objects:
  1156 ;;		On entry : 0/0
  1157 ;;		On exit  : 0/0
  1158 ;;		Unchanged: 0/0
  1159 ;; Data sizes:     COMMON   BANK0   BANK1   BANK3   BANK2
  1160 ;;      Params:         0       8       0       0       0
  1161 ;;      Locals:         0      13       0       0       0
  1162 ;;      Temps:          0       5       0       0       0
  1163 ;;      Totals:         0      26       0       0       0
  1164 ;;Total ram usage:       26 bytes
  1165 ;; Hardware stack levels used: 1
  1166 ;; Hardware stack levels required when called: 1
  1167 ;; This function calls:
  1168 ;;		__Umul8_16
  1169 ;; This function is called by:
  1170 ;;		_main
  1171 ;; This function uses a non-reentrant model
  1172 ;;
  1173                           
  1174     04A7                     ___flmul:	
  1175                           ;psect for function ___flmul
  1176                           
  1177     04A7                     l1488:	
  1178                           ;incstack = 0
  1179                           ; Regs used in ___flmul: [wreg+status,2+status,0+btemp+1+pclath+cstack]
  1180                           
  1181     04A7  1283               	bcf	3,5	;RP0=0, select bank0
  1182     04A8  1303               	bcf	3,6	;RP1=0, select bank0
  1183     04A9  083D               	movf	___flmul@b+3,w
  1184     04AA  3980               	andlw	128
  1185     04AB  00C7               	movwf	___flmul@sign
  1186     04AC                     l1490:
  1187     04AC  083D               	movf	___flmul@b+3,w
  1188     04AD  00C2               	movwf	??___flmul
  1189     04AE  0742               	addwf	??___flmul,w
  1190     04AF  00CD               	movwf	___flmul@bexp
  1191     04B0                     l1492:
  1192     04B0  1FBC               	btfss	___flmul@b+2,7
  1193     04B1  2CB3               	goto	u1691
  1194     04B2  2CB4               	goto	u1690
  1195     04B3                     u1691:
  1196     04B3  2CB5               	goto	l1496
  1197     04B4                     u1690:
  1198     04B4                     l1494:
  1199     04B4  144D               	bsf	___flmul@bexp,0
  1200     04B5                     l1496:
  1201     04B5  084D               	movf	___flmul@bexp,w
  1202     04B6  1903               	btfsc	3,2
  1203     04B7  2CB9               	goto	u1701
  1204     04B8  2CBA               	goto	u1700
  1205     04B9                     u1701:
  1206     04B9  2CC9               	goto	l1504
  1207     04BA                     u1700:
  1208     04BA                     l1498:
  1209     04BA  0A4D               	incf	___flmul@bexp,w
  1210     04BB  1D03               	btfss	3,2
  1211     04BC  2CBE               	goto	u1711
  1212     04BD  2CBF               	goto	u1710
  1213     04BE                     u1711:
  1214     04BE  2CC7               	goto	l1502
  1215     04BF                     u1710:
  1216     04BF                     l1500:
  1217     04BF  3000               	movlw	0
  1218     04C0  00BD               	movwf	___flmul@b+3
  1219     04C1  3000               	movlw	0
  1220     04C2  00BC               	movwf	___flmul@b+2
  1221     04C3  3000               	movlw	0
  1222     04C4  00BB               	movwf	___flmul@b+1
  1223     04C5  3000               	movlw	0
  1224     04C6  00BA               	movwf	___flmul@b
  1225     04C7                     l1502:
  1226     04C7  17BC               	bsf	___flmul@b+2,7
  1227     04C8  2CD1               	goto	l1506
  1228     04C9                     l1504:
  1229     04C9  3000               	movlw	0
  1230     04CA  00BD               	movwf	___flmul@b+3
  1231     04CB  3000               	movlw	0
  1232     04CC  00BC               	movwf	___flmul@b+2
  1233     04CD  3000               	movlw	0
  1234     04CE  00BB               	movwf	___flmul@b+1
  1235     04CF  3000               	movlw	0
  1236     04D0  00BA               	movwf	___flmul@b
  1237     04D1                     l1506:
  1238     04D1  0841               	movf	___flmul@a+3,w
  1239     04D2  3980               	andlw	128
  1240     04D3  00FF               	movwf	btemp+1
  1241     04D4  087F               	movf	btemp+1,w
  1242     04D5  06C7               	xorwf	___flmul@sign,f
  1243     04D6                     l1508:
  1244     04D6  0841               	movf	___flmul@a+3,w
  1245     04D7  00C2               	movwf	??___flmul
  1246     04D8  0742               	addwf	??___flmul,w
  1247     04D9  00CC               	movwf	___flmul@aexp
  1248     04DA                     l1510:
  1249     04DA  1FC0               	btfss	___flmul@a+2,7
  1250     04DB  2CDD               	goto	u1721
  1251     04DC  2CDE               	goto	u1720
  1252     04DD                     u1721:
  1253     04DD  2CDF               	goto	l1514
  1254     04DE                     u1720:
  1255     04DE                     l1512:
  1256     04DE  144C               	bsf	___flmul@aexp,0
  1257     04DF                     l1514:
  1258     04DF  084C               	movf	___flmul@aexp,w
  1259     04E0  1903               	btfsc	3,2
  1260     04E1  2CE3               	goto	u1731
  1261     04E2  2CE4               	goto	u1730
  1262     04E3                     u1731:
  1263     04E3  2CF3               	goto	l1522
  1264     04E4                     u1730:
  1265     04E4                     l1516:
  1266     04E4  0A4C               	incf	___flmul@aexp,w
  1267     04E5  1D03               	btfss	3,2
  1268     04E6  2CE8               	goto	u1741
  1269     04E7  2CE9               	goto	u1740
  1270     04E8                     u1741:
  1271     04E8  2CF1               	goto	l1520
  1272     04E9                     u1740:
  1273     04E9                     l1518:
  1274     04E9  3000               	movlw	0
  1275     04EA  00C1               	movwf	___flmul@a+3
  1276     04EB  3000               	movlw	0
  1277     04EC  00C0               	movwf	___flmul@a+2
  1278     04ED  3000               	movlw	0
  1279     04EE  00BF               	movwf	___flmul@a+1
  1280     04EF  3000               	movlw	0
  1281     04F0  00BE               	movwf	___flmul@a
  1282     04F1                     l1520:
  1283     04F1  17C0               	bsf	___flmul@a+2,7
  1284     04F2  2CFB               	goto	l1524
  1285     04F3                     l1522:
  1286     04F3  3000               	movlw	0
  1287     04F4  00C1               	movwf	___flmul@a+3
  1288     04F5  3000               	movlw	0
  1289     04F6  00C0               	movwf	___flmul@a+2
  1290     04F7  3000               	movlw	0
  1291     04F8  00BF               	movwf	___flmul@a+1
  1292     04F9  3000               	movlw	0
  1293     04FA  00BE               	movwf	___flmul@a
  1294     04FB                     l1524:
  1295     04FB  084C               	movf	___flmul@aexp,w
  1296     04FC  1903               	btfsc	3,2
  1297     04FD  2CFF               	goto	u1751
  1298     04FE  2D00               	goto	u1750
  1299     04FF                     u1751:
  1300     04FF  2D05               	goto	l1528
  1301     0500                     u1750:
  1302     0500                     l1526:
  1303     0500  084D               	movf	___flmul@bexp,w
  1304     0501  1D03               	btfss	3,2
  1305     0502  2D04               	goto	u1761
  1306     0503  2D05               	goto	u1760
  1307     0504                     u1761:
  1308     0504  2D0E               	goto	l1532
  1309     0505                     u1760:
  1310     0505                     l1528:
  1311     0505  3000               	movlw	0
  1312     0506  00BD               	movwf	?___flmul+3
  1313     0507  3000               	movlw	0
  1314     0508  00BC               	movwf	?___flmul+2
  1315     0509  3000               	movlw	0
  1316     050A  00BB               	movwf	?___flmul+1
  1317     050B  3000               	movlw	0
  1318     050C  00BA               	movwf	?___flmul
  1319     050D  2FEB               	goto	l539
  1320     050E                     l1532:
  1321     050E  083A               	movf	___flmul@b,w
  1322     050F  00F0               	movwf	__Umul8_16@multiplicand
  1323     0510  0840               	movf	___flmul@a+2,w
  1324     0511  120A  158A  279F  120A  118A  	fcall	__Umul8_16
  1325     0516  0871               	movf	?__Umul8_16+1,w
  1326     0517  1283               	bcf	3,5	;RP0=0, select bank0
  1327     0518  1303               	bcf	3,6	;RP1=0, select bank0
  1328     0519  00D3               	movwf	___flmul@temp+1
  1329     051A  0870               	movf	?__Umul8_16,w
  1330     051B  00D2               	movwf	___flmul@temp
  1331     051C                     l1534:
  1332     051C  0852               	movf	___flmul@temp,w
  1333     051D  00C2               	movwf	??___flmul
  1334     051E  01C3               	clrf	??___flmul+1
  1335     051F  01C4               	clrf	??___flmul+2
  1336     0520  01C5               	clrf	??___flmul+3
  1337     0521  0845               	movf	??___flmul+3,w
  1338     0522  00CB               	movwf	___flmul@grs+3
  1339     0523  0844               	movf	??___flmul+2,w
  1340     0524  00CA               	movwf	___flmul@grs+2
  1341     0525  0843               	movf	??___flmul+1,w
  1342     0526  00C9               	movwf	___flmul@grs+1
  1343     0527  0842               	movf	??___flmul,w
  1344     0528  00C8               	movwf	___flmul@grs
  1345     0529                     l1536:
  1346     0529  0853               	movf	___flmul@temp+1,w
  1347     052A  00C2               	movwf	??___flmul
  1348     052B  01C3               	clrf	??___flmul+1
  1349     052C  01C4               	clrf	??___flmul+2
  1350     052D  01C5               	clrf	??___flmul+3
  1351     052E  0845               	movf	??___flmul+3,w
  1352     052F  00D1               	movwf	___flmul@prod+3
  1353     0530  0844               	movf	??___flmul+2,w
  1354     0531  00D0               	movwf	___flmul@prod+2
  1355     0532  0843               	movf	??___flmul+1,w
  1356     0533  00CF               	movwf	___flmul@prod+1
  1357     0534  0842               	movf	??___flmul,w
  1358     0535  00CE               	movwf	___flmul@prod
  1359     0536  083B               	movf	___flmul@b+1,w
  1360     0537  00F0               	movwf	__Umul8_16@multiplicand
  1361     0538  083F               	movf	___flmul@a+1,w
  1362     0539  120A  158A  279F  120A  118A  	fcall	__Umul8_16
  1363     053E  0871               	movf	?__Umul8_16+1,w
  1364     053F  1283               	bcf	3,5	;RP0=0, select bank0
  1365     0540  1303               	bcf	3,6	;RP1=0, select bank0
  1366     0541  00D3               	movwf	___flmul@temp+1
  1367     0542  0870               	movf	?__Umul8_16,w
  1368     0543  00D2               	movwf	___flmul@temp
  1369     0544                     l1538:
  1370     0544  0852               	movf	___flmul@temp,w
  1371     0545  00C2               	movwf	??___flmul
  1372     0546  01C3               	clrf	??___flmul+1
  1373     0547  01C4               	clrf	??___flmul+2
  1374     0548  01C5               	clrf	??___flmul+3
  1375     0549  0842               	movf	??___flmul,w
  1376     054A  07C8               	addwf	___flmul@grs,f
  1377     054B  0843               	movf	??___flmul+1,w
  1378     054C  1103               	clrz
  1379     054D  1803               	skipnc
  1380     054E  3E01               	addlw	1
  1381     054F  1903               	skipnz
  1382     0550  2D52               	goto	u1771
  1383     0551  07C9               	addwf	___flmul@grs+1,f
  1384     0552                     u1771:
  1385     0552  0844               	movf	??___flmul+2,w
  1386     0553  1103               	clrz
  1387     0554  1803               	skipnc
  1388     0555  3E01               	addlw	1
  1389     0556  1903               	skipnz
  1390     0557  2D59               	goto	u1772
  1391     0558  07CA               	addwf	___flmul@grs+2,f
  1392     0559                     u1772:
  1393     0559  0845               	movf	??___flmul+3,w
  1394     055A  1103               	clrz
  1395     055B  1803               	skipnc
  1396     055C  3E01               	addlw	1
  1397     055D  1903               	skipnz
  1398     055E  2D60               	goto	u1773
  1399     055F  07CB               	addwf	___flmul@grs+3,f
  1400     0560                     u1773:
  1401     0560                     l1540:
  1402     0560  0853               	movf	___flmul@temp+1,w
  1403     0561  00C2               	movwf	??___flmul
  1404     0562  01C3               	clrf	??___flmul+1
  1405     0563  01C4               	clrf	??___flmul+2
  1406     0564  01C5               	clrf	??___flmul+3
  1407     0565  0842               	movf	??___flmul,w
  1408     0566  07CE               	addwf	___flmul@prod,f
  1409     0567  0843               	movf	??___flmul+1,w
  1410     0568  1103               	clrz
  1411     0569  1803               	skipnc
  1412     056A  3E01               	addlw	1
  1413     056B  1903               	skipnz
  1414     056C  2D6E               	goto	u1781
  1415     056D  07CF               	addwf	___flmul@prod+1,f
  1416     056E                     u1781:
  1417     056E  0844               	movf	??___flmul+2,w
  1418     056F  1103               	clrz
  1419     0570  1803               	skipnc
  1420     0571  3E01               	addlw	1
  1421     0572  1903               	skipnz
  1422     0573  2D75               	goto	u1782
  1423     0574  07D0               	addwf	___flmul@prod+2,f
  1424     0575                     u1782:
  1425     0575  0845               	movf	??___flmul+3,w
  1426     0576  1103               	clrz
  1427     0577  1803               	skipnc
  1428     0578  3E01               	addlw	1
  1429     0579  1903               	skipnz
  1430     057A  2D7C               	goto	u1783
  1431     057B  07D1               	addwf	___flmul@prod+3,f
  1432     057C                     u1783:
  1433     057C  083C               	movf	___flmul@b+2,w
  1434     057D  00F0               	movwf	__Umul8_16@multiplicand
  1435     057E  083E               	movf	___flmul@a,w
  1436     057F  120A  158A  279F  120A  118A  	fcall	__Umul8_16
  1437     0584  0871               	movf	?__Umul8_16+1,w
  1438     0585  1283               	bcf	3,5	;RP0=0, select bank0
  1439     0586  1303               	bcf	3,6	;RP1=0, select bank0
  1440     0587  00D3               	movwf	___flmul@temp+1
  1441     0588  0870               	movf	?__Umul8_16,w
  1442     0589  00D2               	movwf	___flmul@temp
  1443     058A                     l1542:
  1444     058A  0852               	movf	___flmul@temp,w
  1445     058B  00C2               	movwf	??___flmul
  1446     058C  01C3               	clrf	??___flmul+1
  1447     058D  01C4               	clrf	??___flmul+2
  1448     058E  01C5               	clrf	??___flmul+3
  1449     058F  0842               	movf	??___flmul,w
  1450     0590  07C8               	addwf	___flmul@grs,f
  1451     0591  0843               	movf	??___flmul+1,w
  1452     0592  1103               	clrz
  1453     0593  1803               	skipnc
  1454     0594  3E01               	addlw	1
  1455     0595  1903               	skipnz
  1456     0596  2D98               	goto	u1791
  1457     0597  07C9               	addwf	___flmul@grs+1,f
  1458     0598                     u1791:
  1459     0598  0844               	movf	??___flmul+2,w
  1460     0599  1103               	clrz
  1461     059A  1803               	skipnc
  1462     059B  3E01               	addlw	1
  1463     059C  1903               	skipnz
  1464     059D  2D9F               	goto	u1792
  1465     059E  07CA               	addwf	___flmul@grs+2,f
  1466     059F                     u1792:
  1467     059F  0845               	movf	??___flmul+3,w
  1468     05A0  1103               	clrz
  1469     05A1  1803               	skipnc
  1470     05A2  3E01               	addlw	1
  1471     05A3  1903               	skipnz
  1472     05A4  2DA6               	goto	u1793
  1473     05A5  07CB               	addwf	___flmul@grs+3,f
  1474     05A6                     u1793:
  1475     05A6                     l1544:
  1476     05A6  0853               	movf	___flmul@temp+1,w
  1477     05A7  00C2               	movwf	??___flmul
  1478     05A8  01C3               	clrf	??___flmul+1
  1479     05A9  01C4               	clrf	??___flmul+2
  1480     05AA  01C5               	clrf	??___flmul+3
  1481     05AB  0842               	movf	??___flmul,w
  1482     05AC  07CE               	addwf	___flmul@prod,f
  1483     05AD  0843               	movf	??___flmul+1,w
  1484     05AE  1103               	clrz
  1485     05AF  1803               	skipnc
  1486     05B0  3E01               	addlw	1
  1487     05B1  1903               	skipnz
  1488     05B2  2DB4               	goto	u1801
  1489     05B3  07CF               	addwf	___flmul@prod+1,f
  1490     05B4                     u1801:
  1491     05B4  0844               	movf	??___flmul+2,w
  1492     05B5  1103               	clrz
  1493     05B6  1803               	skipnc
  1494     05B7  3E01               	addlw	1
  1495     05B8  1903               	skipnz
  1496     05B9  2DBB               	goto	u1802
  1497     05BA  07D0               	addwf	___flmul@prod+2,f
  1498     05BB                     u1802:
  1499     05BB  0845               	movf	??___flmul+3,w
  1500     05BC  1103               	clrz
  1501     05BD  1803               	skipnc
  1502     05BE  3E01               	addlw	1
  1503     05BF  1903               	skipnz
  1504     05C0  2DC2               	goto	u1803
  1505     05C1  07D1               	addwf	___flmul@prod+3,f
  1506     05C2                     u1803:
  1507     05C2                     l1546:
  1508     05C2  3008               	movlw	8
  1509     05C3  00C2               	movwf	??___flmul
  1510     05C4                     u1815:
  1511     05C4  1003               	clrc
  1512     05C5  0DC8               	rlf	___flmul@grs,f
  1513     05C6  0DC9               	rlf	___flmul@grs+1,f
  1514     05C7  0DCA               	rlf	___flmul@grs+2,f
  1515     05C8  0DCB               	rlf	___flmul@grs+3,f
  1516     05C9  0BC2               	decfsz	??___flmul,f
  1517     05CA  2DC4               	goto	u1815
  1518     05CB                     l1548:
  1519     05CB  083B               	movf	___flmul@b+1,w
  1520     05CC  00F0               	movwf	__Umul8_16@multiplicand
  1521     05CD  083E               	movf	___flmul@a,w
  1522     05CE  120A  158A  279F  120A  118A  	fcall	__Umul8_16
  1523     05D3  0871               	movf	?__Umul8_16+1,w
  1524     05D4  1283               	bcf	3,5	;RP0=0, select bank0
  1525     05D5  1303               	bcf	3,6	;RP1=0, select bank0
  1526     05D6  00D3               	movwf	___flmul@temp+1
  1527     05D7  0870               	movf	?__Umul8_16,w
  1528     05D8  00D2               	movwf	___flmul@temp
  1529     05D9                     l1550:
  1530     05D9  0852               	movf	___flmul@temp,w
  1531     05DA  00C2               	movwf	??___flmul
  1532     05DB  0853               	movf	___flmul@temp+1,w
  1533     05DC  00C3               	movwf	??___flmul+1
  1534     05DD  01C4               	clrf	??___flmul+2
  1535     05DE  01C5               	clrf	??___flmul+3
  1536     05DF  0842               	movf	??___flmul,w
  1537     05E0  07C8               	addwf	___flmul@grs,f
  1538     05E1  0843               	movf	??___flmul+1,w
  1539     05E2  1103               	clrz
  1540     05E3  1803               	skipnc
  1541     05E4  3E01               	addlw	1
  1542     05E5  1903               	skipnz
  1543     05E6  2DE8               	goto	u1821
  1544     05E7  07C9               	addwf	___flmul@grs+1,f
  1545     05E8                     u1821:
  1546     05E8  0844               	movf	??___flmul+2,w
  1547     05E9  1103               	clrz
  1548     05EA  1803               	skipnc
  1549     05EB  3E01               	addlw	1
  1550     05EC  1903               	skipnz
  1551     05ED  2DEF               	goto	u1822
  1552     05EE  07CA               	addwf	___flmul@grs+2,f
  1553     05EF                     u1822:
  1554     05EF  0845               	movf	??___flmul+3,w
  1555     05F0  1103               	clrz
  1556     05F1  1803               	skipnc
  1557     05F2  3E01               	addlw	1
  1558     05F3  1903               	skipnz
  1559     05F4  2DF6               	goto	u1823
  1560     05F5  07CB               	addwf	___flmul@grs+3,f
  1561     05F6                     u1823:
  1562     05F6                     l1552:
  1563     05F6  083A               	movf	___flmul@b,w
  1564     05F7  00F0               	movwf	__Umul8_16@multiplicand
  1565     05F8  083F               	movf	___flmul@a+1,w
  1566     05F9  120A  158A  279F  120A  118A  	fcall	__Umul8_16
  1567     05FE  0871               	movf	?__Umul8_16+1,w
  1568     05FF  1283               	bcf	3,5	;RP0=0, select bank0
  1569     0600  1303               	bcf	3,6	;RP1=0, select bank0
  1570     0601  00D3               	movwf	___flmul@temp+1
  1571     0602  0870               	movf	?__Umul8_16,w
  1572     0603  00D2               	movwf	___flmul@temp
  1573     0604                     l1554:
  1574     0604  0852               	movf	___flmul@temp,w
  1575     0605  00C2               	movwf	??___flmul
  1576     0606  0853               	movf	___flmul@temp+1,w
  1577     0607  00C3               	movwf	??___flmul+1
  1578     0608  01C4               	clrf	??___flmul+2
  1579     0609  01C5               	clrf	??___flmul+3
  1580     060A  0842               	movf	??___flmul,w
  1581     060B  07C8               	addwf	___flmul@grs,f
  1582     060C  0843               	movf	??___flmul+1,w
  1583     060D  1103               	clrz
  1584     060E  1803               	skipnc
  1585     060F  3E01               	addlw	1
  1586     0610  1903               	skipnz
  1587     0611  2E13               	goto	u1831
  1588     0612  07C9               	addwf	___flmul@grs+1,f
  1589     0613                     u1831:
  1590     0613  0844               	movf	??___flmul+2,w
  1591     0614  1103               	clrz
  1592     0615  1803               	skipnc
  1593     0616  3E01               	addlw	1
  1594     0617  1903               	skipnz
  1595     0618  2E1A               	goto	u1832
  1596     0619  07CA               	addwf	___flmul@grs+2,f
  1597     061A                     u1832:
  1598     061A  0845               	movf	??___flmul+3,w
  1599     061B  1103               	clrz
  1600     061C  1803               	skipnc
  1601     061D  3E01               	addlw	1
  1602     061E  1903               	skipnz
  1603     061F  2E21               	goto	u1833
  1604     0620  07CB               	addwf	___flmul@grs+3,f
  1605     0621                     u1833:
  1606     0621                     l1556:
  1607     0621  3008               	movlw	8
  1608     0622  00C2               	movwf	??___flmul
  1609     0623                     u1845:
  1610     0623  1003               	clrc
  1611     0624  0DC8               	rlf	___flmul@grs,f
  1612     0625  0DC9               	rlf	___flmul@grs+1,f
  1613     0626  0DCA               	rlf	___flmul@grs+2,f
  1614     0627  0DCB               	rlf	___flmul@grs+3,f
  1615     0628  0BC2               	decfsz	??___flmul,f
  1616     0629  2E23               	goto	u1845
  1617     062A  083A               	movf	___flmul@b,w
  1618     062B  00F0               	movwf	__Umul8_16@multiplicand
  1619     062C  083E               	movf	___flmul@a,w
  1620     062D  120A  158A  279F  120A  118A  	fcall	__Umul8_16
  1621     0632  0871               	movf	?__Umul8_16+1,w
  1622     0633  1283               	bcf	3,5	;RP0=0, select bank0
  1623     0634  1303               	bcf	3,6	;RP1=0, select bank0
  1624     0635  00D3               	movwf	___flmul@temp+1
  1625     0636  0870               	movf	?__Umul8_16,w
  1626     0637  00D2               	movwf	___flmul@temp
  1627     0638                     l1558:
  1628     0638  0852               	movf	___flmul@temp,w
  1629     0639  00C2               	movwf	??___flmul
  1630     063A  0853               	movf	___flmul@temp+1,w
  1631     063B  00C3               	movwf	??___flmul+1
  1632     063C  01C4               	clrf	??___flmul+2
  1633     063D  01C5               	clrf	??___flmul+3
  1634     063E  0842               	movf	??___flmul,w
  1635     063F  07C8               	addwf	___flmul@grs,f
  1636     0640  0843               	movf	??___flmul+1,w
  1637     0641  1103               	clrz
  1638     0642  1803               	skipnc
  1639     0643  3E01               	addlw	1
  1640     0644  1903               	skipnz
  1641     0645  2E47               	goto	u1851
  1642     0646  07C9               	addwf	___flmul@grs+1,f
  1643     0647                     u1851:
  1644     0647  0844               	movf	??___flmul+2,w
  1645     0648  1103               	clrz
  1646     0649  1803               	skipnc
  1647     064A  3E01               	addlw	1
  1648     064B  1903               	skipnz
  1649     064C  2E4E               	goto	u1852
  1650     064D  07CA               	addwf	___flmul@grs+2,f
  1651     064E                     u1852:
  1652     064E  0845               	movf	??___flmul+3,w
  1653     064F  1103               	clrz
  1654     0650  1803               	skipnc
  1655     0651  3E01               	addlw	1
  1656     0652  1903               	skipnz
  1657     0653  2E55               	goto	u1853
  1658     0654  07CB               	addwf	___flmul@grs+3,f
  1659     0655                     u1853:
  1660     0655                     l1560:
  1661     0655  083B               	movf	___flmul@b+1,w
  1662     0656  00F0               	movwf	__Umul8_16@multiplicand
  1663     0657  0840               	movf	___flmul@a+2,w
  1664     0658  120A  158A  279F  120A  118A  	fcall	__Umul8_16
  1665     065D  0871               	movf	?__Umul8_16+1,w
  1666     065E  1283               	bcf	3,5	;RP0=0, select bank0
  1667     065F  1303               	bcf	3,6	;RP1=0, select bank0
  1668     0660  00D3               	movwf	___flmul@temp+1
  1669     0661  0870               	movf	?__Umul8_16,w
  1670     0662  00D2               	movwf	___flmul@temp
  1671     0663  0852               	movf	___flmul@temp,w
  1672     0664  00C2               	movwf	??___flmul
  1673     0665  0853               	movf	___flmul@temp+1,w
  1674     0666  00C3               	movwf	??___flmul+1
  1675     0667  01C4               	clrf	??___flmul+2
  1676     0668  01C5               	clrf	??___flmul+3
  1677     0669  0842               	movf	??___flmul,w
  1678     066A  07CE               	addwf	___flmul@prod,f
  1679     066B  0843               	movf	??___flmul+1,w
  1680     066C  1103               	clrz
  1681     066D  1803               	skipnc
  1682     066E  3E01               	addlw	1
  1683     066F  1903               	skipnz
  1684     0670  2E72               	goto	u1861
  1685     0671  07CF               	addwf	___flmul@prod+1,f
  1686     0672                     u1861:
  1687     0672  0844               	movf	??___flmul+2,w
  1688     0673  1103               	clrz
  1689     0674  1803               	skipnc
  1690     0675  3E01               	addlw	1
  1691     0676  1903               	skipnz
  1692     0677  2E79               	goto	u1862
  1693     0678  07D0               	addwf	___flmul@prod+2,f
  1694     0679                     u1862:
  1695     0679  0845               	movf	??___flmul+3,w
  1696     067A  1103               	clrz
  1697     067B  1803               	skipnc
  1698     067C  3E01               	addlw	1
  1699     067D  1903               	skipnz
  1700     067E  2E80               	goto	u1863
  1701     067F  07D1               	addwf	___flmul@prod+3,f
  1702     0680                     u1863:
  1703     0680                     l1562:
  1704     0680  083C               	movf	___flmul@b+2,w
  1705     0681  00F0               	movwf	__Umul8_16@multiplicand
  1706     0682  083F               	movf	___flmul@a+1,w
  1707     0683  120A  158A  279F  120A  118A  	fcall	__Umul8_16
  1708     0688  0871               	movf	?__Umul8_16+1,w
  1709     0689  1283               	bcf	3,5	;RP0=0, select bank0
  1710     068A  1303               	bcf	3,6	;RP1=0, select bank0
  1711     068B  00D3               	movwf	___flmul@temp+1
  1712     068C  0870               	movf	?__Umul8_16,w
  1713     068D  00D2               	movwf	___flmul@temp
  1714     068E                     l1564:
  1715     068E  0852               	movf	___flmul@temp,w
  1716     068F  00C2               	movwf	??___flmul
  1717     0690  0853               	movf	___flmul@temp+1,w
  1718     0691  00C3               	movwf	??___flmul+1
  1719     0692  01C4               	clrf	??___flmul+2
  1720     0693  01C5               	clrf	??___flmul+3
  1721     0694  0842               	movf	??___flmul,w
  1722     0695  07CE               	addwf	___flmul@prod,f
  1723     0696  0843               	movf	??___flmul+1,w
  1724     0697  1103               	clrz
  1725     0698  1803               	skipnc
  1726     0699  3E01               	addlw	1
  1727     069A  1903               	skipnz
  1728     069B  2E9D               	goto	u1871
  1729     069C  07CF               	addwf	___flmul@prod+1,f
  1730     069D                     u1871:
  1731     069D  0844               	movf	??___flmul+2,w
  1732     069E  1103               	clrz
  1733     069F  1803               	skipnc
  1734     06A0  3E01               	addlw	1
  1735     06A1  1903               	skipnz
  1736     06A2  2EA4               	goto	u1872
  1737     06A3  07D0               	addwf	___flmul@prod+2,f
  1738     06A4                     u1872:
  1739     06A4  0845               	movf	??___flmul+3,w
  1740     06A5  1103               	clrz
  1741     06A6  1803               	skipnc
  1742     06A7  3E01               	addlw	1
  1743     06A8  1903               	skipnz
  1744     06A9  2EAB               	goto	u1873
  1745     06AA  07D1               	addwf	___flmul@prod+3,f
  1746     06AB                     u1873:
  1747     06AB  083C               	movf	___flmul@b+2,w
  1748     06AC  00F0               	movwf	__Umul8_16@multiplicand
  1749     06AD  0840               	movf	___flmul@a+2,w
  1750     06AE  120A  158A  279F  120A  118A  	fcall	__Umul8_16
  1751     06B3  0871               	movf	?__Umul8_16+1,w
  1752     06B4  1283               	bcf	3,5	;RP0=0, select bank0
  1753     06B5  1303               	bcf	3,6	;RP1=0, select bank0
  1754     06B6  00D3               	movwf	___flmul@temp+1
  1755     06B7  0870               	movf	?__Umul8_16,w
  1756     06B8  00D2               	movwf	___flmul@temp
  1757     06B9                     l1566:
  1758     06B9  0852               	movf	___flmul@temp,w
  1759     06BA  00C2               	movwf	??___flmul
  1760     06BB  0853               	movf	___flmul@temp+1,w
  1761     06BC  00C3               	movwf	??___flmul+1
  1762     06BD  01C4               	clrf	??___flmul+2
  1763     06BE  01C5               	clrf	??___flmul+3
  1764     06BF  3008               	movlw	8
  1765     06C0                     u1885:
  1766     06C0  1003               	clrc
  1767     06C1  0DC2               	rlf	??___flmul,f
  1768     06C2  0DC3               	rlf	??___flmul+1,f
  1769     06C3  0DC4               	rlf	??___flmul+2,f
  1770     06C4  0DC5               	rlf	??___flmul+3,f
  1771     06C5                     u1880:
  1772     06C5  3EFF               	addlw	-1
  1773     06C6  1D03               	skipz
  1774     06C7  2EC0               	goto	u1885
  1775     06C8  0842               	movf	??___flmul,w
  1776     06C9  07CE               	addwf	___flmul@prod,f
  1777     06CA  0843               	movf	??___flmul+1,w
  1778     06CB  1103               	clrz
  1779     06CC  1803               	skipnc
  1780     06CD  3E01               	addlw	1
  1781     06CE  1903               	skipnz
  1782     06CF  2ED1               	goto	u1891
  1783     06D0  07CF               	addwf	___flmul@prod+1,f
  1784     06D1                     u1891:
  1785     06D1  0844               	movf	??___flmul+2,w
  1786     06D2  1103               	clrz
  1787     06D3  1803               	skipnc
  1788     06D4  3E01               	addlw	1
  1789     06D5  1903               	skipnz
  1790     06D6  2ED8               	goto	u1892
  1791     06D7  07D0               	addwf	___flmul@prod+2,f
  1792     06D8                     u1892:
  1793     06D8  0845               	movf	??___flmul+3,w
  1794     06D9  1103               	clrz
  1795     06DA  1803               	skipnc
  1796     06DB  3E01               	addlw	1
  1797     06DC  1903               	skipnz
  1798     06DD  2EDF               	goto	u1893
  1799     06DE  07D1               	addwf	___flmul@prod+3,f
  1800     06DF                     u1893:
  1801     06DF                     l1568:
  1802     06DF  0848               	movf	___flmul@grs,w
  1803     06E0  00C2               	movwf	??___flmul
  1804     06E1  0849               	movf	___flmul@grs+1,w
  1805     06E2  00C3               	movwf	??___flmul+1
  1806     06E3  084A               	movf	___flmul@grs+2,w
  1807     06E4  00C4               	movwf	??___flmul+2
  1808     06E5  084B               	movf	___flmul@grs+3,w
  1809     06E6  00C5               	movwf	??___flmul+3
  1810     06E7  3018               	movlw	24
  1811     06E8                     u1905:
  1812     06E8  1003               	clrc
  1813     06E9  0CC5               	rrf	??___flmul+3,f
  1814     06EA  0CC4               	rrf	??___flmul+2,f
  1815     06EB  0CC3               	rrf	??___flmul+1,f
  1816     06EC  0CC2               	rrf	??___flmul,f
  1817     06ED                     u1900:
  1818     06ED  3EFF               	addlw	-1
  1819     06EE  1D03               	skipz
  1820     06EF  2EE8               	goto	u1905
  1821     06F0  0842               	movf	??___flmul,w
  1822     06F1  07CE               	addwf	___flmul@prod,f
  1823     06F2  0843               	movf	??___flmul+1,w
  1824     06F3  1103               	clrz
  1825     06F4  1803               	skipnc
  1826     06F5  3E01               	addlw	1
  1827     06F6  1903               	skipnz
  1828     06F7  2EF9               	goto	u1911
  1829     06F8  07CF               	addwf	___flmul@prod+1,f
  1830     06F9                     u1911:
  1831     06F9  0844               	movf	??___flmul+2,w
  1832     06FA  1103               	clrz
  1833     06FB  1803               	skipnc
  1834     06FC  3E01               	addlw	1
  1835     06FD  1903               	skipnz
  1836     06FE  2F00               	goto	u1912
  1837     06FF  07D0               	addwf	___flmul@prod+2,f
  1838     0700                     u1912:
  1839     0700  0845               	movf	??___flmul+3,w
  1840     0701  1103               	clrz
  1841     0702  1803               	skipnc
  1842     0703  3E01               	addlw	1
  1843     0704  1903               	skipnz
  1844     0705  2F07               	goto	u1913
  1845     0706  07D1               	addwf	___flmul@prod+3,f
  1846     0707                     u1913:
  1847     0707                     l1570:
  1848     0707  3008               	movlw	8
  1849     0708  00C2               	movwf	??___flmul
  1850     0709                     u1925:
  1851     0709  1003               	clrc
  1852     070A  0DC8               	rlf	___flmul@grs,f
  1853     070B  0DC9               	rlf	___flmul@grs+1,f
  1854     070C  0DCA               	rlf	___flmul@grs+2,f
  1855     070D  0DCB               	rlf	___flmul@grs+3,f
  1856     070E  0BC2               	decfsz	??___flmul,f
  1857     070F  2F09               	goto	u1925
  1858     0710                     l1572:
  1859     0710  084D               	movf	___flmul@bexp,w
  1860     0711  074C               	addwf	___flmul@aexp,w
  1861     0712  00C2               	movwf	??___flmul
  1862     0713  01C3               	clrf	??___flmul+1
  1863     0714  0DC3               	rlf	??___flmul+1,f
  1864     0715  0842               	movf	??___flmul,w
  1865     0716  3E82               	addlw	130
  1866     0717  00D2               	movwf	___flmul@temp
  1867     0718  0843               	movf	??___flmul+1,w
  1868     0719  1803               	skipnc
  1869     071A  3E01               	addlw	1
  1870     071B  3EFF               	addlw	255
  1871     071C  00D3               	movwf	___flmul@temp+1
  1872     071D  2F3B               	goto	l1584
  1873     071E                     l1574:
  1874     071E  3001               	movlw	1
  1875     071F  00C2               	movwf	??___flmul
  1876     0720                     u1935:
  1877     0720  1003               	clrc
  1878     0721  0DCE               	rlf	___flmul@prod,f
  1879     0722  0DCF               	rlf	___flmul@prod+1,f
  1880     0723  0DD0               	rlf	___flmul@prod+2,f
  1881     0724  0DD1               	rlf	___flmul@prod+3,f
  1882     0725  0BC2               	decfsz	??___flmul,f
  1883     0726  2F20               	goto	u1935
  1884     0727                     l1576:
  1885     0727  1FCB               	btfss	___flmul@grs+3,7
  1886     0728  2F2A               	goto	u1941
  1887     0729  2F2B               	goto	u1940
  1888     072A                     u1941:
  1889     072A  2F2C               	goto	l1580
  1890     072B                     u1940:
  1891     072B                     l1578:
  1892     072B  144E               	bsf	___flmul@prod,0
  1893     072C                     l1580:
  1894     072C  3001               	movlw	1
  1895     072D  00C2               	movwf	??___flmul
  1896     072E                     u1955:
  1897     072E  1003               	clrc
  1898     072F  0DC8               	rlf	___flmul@grs,f
  1899     0730  0DC9               	rlf	___flmul@grs+1,f
  1900     0731  0DCA               	rlf	___flmul@grs+2,f
  1901     0732  0DCB               	rlf	___flmul@grs+3,f
  1902     0733  0BC2               	decfsz	??___flmul,f
  1903     0734  2F2E               	goto	u1955
  1904     0735                     l1582:
  1905     0735  30FF               	movlw	255
  1906     0736  07D2               	addwf	___flmul@temp,f
  1907     0737  1803               	skipnc
  1908     0738  0AD3               	incf	___flmul@temp+1,f
  1909     0739  30FF               	movlw	255
  1910     073A  07D3               	addwf	___flmul@temp+1,f
  1911     073B                     l1584:
  1912     073B  1FD0               	btfss	___flmul@prod+2,7
  1913     073C  2F3E               	goto	u1961
  1914     073D  2F3F               	goto	u1960
  1915     073E                     u1961:
  1916     073E  2F1E               	goto	l1574
  1917     073F                     u1960:
  1918     073F                     l1586:
  1919     073F  01CC               	clrf	___flmul@aexp
  1920     0740                     l1588:
  1921     0740  1FCB               	btfss	___flmul@grs+3,7
  1922     0741  2F43               	goto	u1971
  1923     0742  2F44               	goto	u1970
  1924     0743                     u1971:
  1925     0743  2F60               	goto	l1596
  1926     0744                     u1970:
  1927     0744                     l1590:
  1928     0744  30FF               	movlw	255
  1929     0745  0548               	andwf	___flmul@grs,w
  1930     0746  00C2               	movwf	??___flmul
  1931     0747  30FF               	movlw	255
  1932     0748  0549               	andwf	___flmul@grs+1,w
  1933     0749  00C3               	movwf	??___flmul+1
  1934     074A  30FF               	movlw	255
  1935     074B  054A               	andwf	___flmul@grs+2,w
  1936     074C  00C4               	movwf	??___flmul+2
  1937     074D  307F               	movlw	127
  1938     074E  054B               	andwf	___flmul@grs+3,w
  1939     074F  00C5               	movwf	??___flmul+3
  1940     0750  0845               	movf	??___flmul+3,w
  1941     0751  0444               	iorwf	??___flmul+2,w
  1942     0752  0443               	iorwf	??___flmul+1,w
  1943     0753  0442               	iorwf	??___flmul,w
  1944     0754  1903               	skipnz
  1945     0755  2F57               	goto	u1981
  1946     0756  2F58               	goto	u1980
  1947     0757                     u1981:
  1948     0757  2F5B               	goto	l545
  1949     0758                     u1980:
  1950     0758                     l1592:
  1951     0758  01CC               	clrf	___flmul@aexp
  1952     0759  0ACC               	incf	___flmul@aexp,f
  1953     075A  2F60               	goto	l1596
  1954     075B                     l545:
  1955     075B  1C4E               	btfss	___flmul@prod,0
  1956     075C  2F5E               	goto	u1991
  1957     075D  2F5F               	goto	u1990
  1958     075E                     u1991:
  1959     075E  2F60               	goto	l1596
  1960     075F                     u1990:
  1961     075F  2F58               	goto	l1592
  1962     0760                     l1596:
  1963     0760  084C               	movf	___flmul@aexp,w
  1964     0761  1903               	btfsc	3,2
  1965     0762  2F64               	goto	u2001
  1966     0763  2F65               	goto	u2000
  1967     0764                     u2001:
  1968     0764  2F96               	goto	l1606
  1969     0765                     u2000:
  1970     0765                     l1598:
  1971     0765  3001               	movlw	1
  1972     0766  07CE               	addwf	___flmul@prod,f
  1973     0767  3000               	movlw	0
  1974     0768  1803               	skipnc
  1975     0769  3001               	movlw	1
  1976     076A  07CF               	addwf	___flmul@prod+1,f
  1977     076B  3000               	movlw	0
  1978     076C  1803               	skipnc
  1979     076D  3001               	movlw	1
  1980     076E  07D0               	addwf	___flmul@prod+2,f
  1981     076F  3000               	movlw	0
  1982     0770  1803               	skipnc
  1983     0771  3001               	movlw	1
  1984     0772  07D1               	addwf	___flmul@prod+3,f
  1985     0773                     l1600:
  1986     0773  1C51               	btfss	___flmul@prod+3,0
  1987     0774  2F76               	goto	u2011
  1988     0775  2F77               	goto	u2010
  1989     0776                     u2011:
  1990     0776  2F96               	goto	l1606
  1991     0777                     u2010:
  1992     0777                     l1602:
  1993     0777  084E               	movf	___flmul@prod,w
  1994     0778  00C2               	movwf	??___flmul
  1995     0779  084F               	movf	___flmul@prod+1,w
  1996     077A  00C3               	movwf	??___flmul+1
  1997     077B  0850               	movf	___flmul@prod+2,w
  1998     077C  00C4               	movwf	??___flmul+2
  1999     077D  0851               	movf	___flmul@prod+3,w
  2000     077E  00C5               	movwf	??___flmul+3
  2001     077F  3001               	movlw	1
  2002     0780  00C6               	movwf	??___flmul+4
  2003     0781                     u2025:
  2004     0781  0D45               	rlf	??___flmul+3,w
  2005     0782  0CC5               	rrf	??___flmul+3,f
  2006     0783  0CC4               	rrf	??___flmul+2,f
  2007     0784  0CC3               	rrf	??___flmul+1,f
  2008     0785  0CC2               	rrf	??___flmul,f
  2009     0786                     u2020:
  2010     0786  0BC6               	decfsz	??___flmul+4,f
  2011     0787  2F81               	goto	u2025
  2012     0788  0845               	movf	??___flmul+3,w
  2013     0789  00D1               	movwf	___flmul@prod+3
  2014     078A  0844               	movf	??___flmul+2,w
  2015     078B  00D0               	movwf	___flmul@prod+2
  2016     078C  0843               	movf	??___flmul+1,w
  2017     078D  00CF               	movwf	___flmul@prod+1
  2018     078E  0842               	movf	??___flmul,w
  2019     078F  00CE               	movwf	___flmul@prod
  2020     0790                     l1604:
  2021     0790  3001               	movlw	1
  2022     0791  07D2               	addwf	___flmul@temp,f
  2023     0792  1803               	skipnc
  2024     0793  0AD3               	incf	___flmul@temp+1,f
  2025     0794  3000               	movlw	0
  2026     0795  07D3               	addwf	___flmul@temp+1,f
  2027     0796                     l1606:
  2028     0796  0853               	movf	___flmul@temp+1,w
  2029     0797  3A80               	xorlw	128
  2030     0798  00FF               	movwf	btemp+1
  2031     0799  3080               	movlw	128
  2032     079A  027F               	subwf	btemp+1,w
  2033     079B  1D03               	skipz
  2034     079C  2F9F               	goto	u2035
  2035     079D  30FF               	movlw	255
  2036     079E  0252               	subwf	___flmul@temp,w
  2037     079F                     u2035:
  2038     079F  1C03               	skipc
  2039     07A0  2FA2               	goto	u2031
  2040     07A1  2FA3               	goto	u2030
  2041     07A2                     u2031:
  2042     07A2  2FAE               	goto	l1610
  2043     07A3                     u2030:
  2044     07A3                     l1608:
  2045     07A3  307F               	movlw	127
  2046     07A4  1283               	bcf	3,5	;RP0=0, select bank0
  2047     07A5  1303               	bcf	3,6	;RP1=0, select bank0
  2048     07A6  00D1               	movwf	___flmul@prod+3
  2049     07A7  3080               	movlw	128
  2050     07A8  00D0               	movwf	___flmul@prod+2
  2051     07A9  3000               	movlw	0
  2052     07AA  00CF               	movwf	___flmul@prod+1
  2053     07AB  3000               	movlw	0
  2054     07AC  00CE               	movwf	___flmul@prod
  2055     07AD  2FDF               	goto	l1624
  2056     07AE                     l1610:
  2057     07AE  1283               	bcf	3,5	;RP0=0, select bank0
  2058     07AF  1303               	bcf	3,6	;RP1=0, select bank0
  2059     07B0  0853               	movf	___flmul@temp+1,w
  2060     07B1  3A80               	xorlw	128
  2061     07B2  00FF               	movwf	btemp+1
  2062     07B3  3080               	movlw	128
  2063     07B4  027F               	subwf	btemp+1,w
  2064     07B5  1D03               	skipz
  2065     07B6  2FB9               	goto	u2045
  2066     07B7  3001               	movlw	1
  2067     07B8  0252               	subwf	___flmul@temp,w
  2068     07B9                     u2045:
  2069     07B9  1803               	skipnc
  2070     07BA  2FBC               	goto	u2041
  2071     07BB  2FBD               	goto	u2040
  2072     07BC                     u2041:
  2073     07BC  2FC9               	goto	l1616
  2074     07BD                     u2040:
  2075     07BD                     l1612:
  2076     07BD  3000               	movlw	0
  2077     07BE  1283               	bcf	3,5	;RP0=0, select bank0
  2078     07BF  1303               	bcf	3,6	;RP1=0, select bank0
  2079     07C0  00D1               	movwf	___flmul@prod+3
  2080     07C1  3000               	movlw	0
  2081     07C2  00D0               	movwf	___flmul@prod+2
  2082     07C3  3000               	movlw	0
  2083     07C4  00CF               	movwf	___flmul@prod+1
  2084     07C5  3000               	movlw	0
  2085     07C6  00CE               	movwf	___flmul@prod
  2086     07C7                     l1614:
  2087     07C7  01C7               	clrf	___flmul@sign
  2088     07C8  2FDF               	goto	l1624
  2089     07C9                     l1616:
  2090     07C9  1283               	bcf	3,5	;RP0=0, select bank0
  2091     07CA  1303               	bcf	3,6	;RP1=0, select bank0
  2092     07CB  0852               	movf	___flmul@temp,w
  2093     07CC  00CD               	movwf	___flmul@bexp
  2094     07CD  30FF               	movlw	255
  2095     07CE  05CE               	andwf	___flmul@prod,f
  2096     07CF  30FF               	movlw	255
  2097     07D0  05CF               	andwf	___flmul@prod+1,f
  2098     07D1  307F               	movlw	127
  2099     07D2  05D0               	andwf	___flmul@prod+2,f
  2100     07D3  3000               	movlw	0
  2101     07D4  05D1               	andwf	___flmul@prod+3,f
  2102     07D5                     l1618:
  2103     07D5  1C4D               	btfss	___flmul@bexp,0
  2104     07D6  2FD8               	goto	u2051
  2105     07D7  2FD9               	goto	u2050
  2106     07D8                     u2051:
  2107     07D8  2FDA               	goto	l1622
  2108     07D9                     u2050:
  2109     07D9                     l1620:
  2110     07D9  17D0               	bsf	___flmul@prod+2,7
  2111     07DA                     l1622:
  2112     07DA  084D               	movf	___flmul@bexp,w
  2113     07DB  00C2               	movwf	??___flmul
  2114     07DC  1003               	clrc
  2115     07DD  0C42               	rrf	??___flmul,w
  2116     07DE  00D1               	movwf	___flmul@prod+3
  2117     07DF                     l1624:
  2118     07DF  0847               	movf	___flmul@sign,w
  2119     07E0  00FF               	movwf	btemp+1
  2120     07E1  087F               	movf	btemp+1,w
  2121     07E2  04D1               	iorwf	___flmul@prod+3,f
  2122     07E3                     l1626:
  2123     07E3  0851               	movf	___flmul@prod+3,w
  2124     07E4  00BD               	movwf	?___flmul+3
  2125     07E5  0850               	movf	___flmul@prod+2,w
  2126     07E6  00BC               	movwf	?___flmul+2
  2127     07E7  084F               	movf	___flmul@prod+1,w
  2128     07E8  00BB               	movwf	?___flmul+1
  2129     07E9  084E               	movf	___flmul@prod,w
  2130     07EA  00BA               	movwf	?___flmul
  2131     07EB                     l539:
  2132     07EB  0008               	return
  2133     07EC                     __end_of___flmul:
  2134                           
  2135                           	psect	text4
  2136     0F9F                     __ptext4:	
  2137 ;; *************** function __Umul8_16 *****************
  2138 ;; Defined at:
  2139 ;;		line 4 in file "C:\Program Files\Microchip\xc8\v2.41\pic\sources\c90\common\Umul8_16.c"
  2140 ;; Parameters:    Size  Location     Type
  2141 ;;  multiplier      1    wreg     unsigned char 
  2142 ;;  multiplicand    1    0[COMMON] unsigned char 
  2143 ;; Auto vars:     Size  Location     Type
  2144 ;;  multiplier      1    8[COMMON] unsigned char 
  2145 ;;  word_mpld       2    6[COMMON] unsigned int 
  2146 ;;  product         2    4[COMMON] unsigned int 
  2147 ;; Return value:  Size  Location     Type
  2148 ;;                  2    0[COMMON] unsigned int 
  2149 ;; Registers used:
  2150 ;;		wreg, status,2, status,0
  2151 ;; Tracked objects:
  2152 ;;		On entry : 0/0
  2153 ;;		On exit  : 0/0
  2154 ;;		Unchanged: 0/0
  2155 ;; Data sizes:     COMMON   BANK0   BANK1   BANK3   BANK2
  2156 ;;      Params:         2       0       0       0       0
  2157 ;;      Locals:         5       0       0       0       0
  2158 ;;      Temps:          2       0       0       0       0
  2159 ;;      Totals:         9       0       0       0       0
  2160 ;;Total ram usage:        9 bytes
  2161 ;; Hardware stack levels used: 1
  2162 ;; This function calls:
  2163 ;;		Nothing
  2164 ;; This function is called by:
  2165 ;;		___flmul
  2166 ;; This function uses a non-reentrant model
  2167 ;;
  2168                           
  2169     0F9F                     __Umul8_16:	
  2170                           ;psect for function __Umul8_16
  2171                           
  2172                           
  2173                           ;incstack = 0
  2174                           ; Regs used in __Umul8_16: [wreg+status,2+status,0]
  2175                           ;__Umul8_16@multiplier stored from wreg
  2176     0F9F  00F8               	movwf	__Umul8_16@multiplier
  2177     0FA0                     l1240:
  2178     0FA0  01F4               	clrf	__Umul8_16@product
  2179     0FA1  01F5               	clrf	__Umul8_16@product+1
  2180     0FA2                     l1242:
  2181     0FA2  0870               	movf	__Umul8_16@multiplicand,w
  2182     0FA3  00F2               	movwf	??__Umul8_16
  2183     0FA4  01F3               	clrf	??__Umul8_16+1
  2184     0FA5  0872               	movf	??__Umul8_16,w
  2185     0FA6  00F6               	movwf	__Umul8_16@word_mpld
  2186     0FA7  0873               	movf	??__Umul8_16+1,w
  2187     0FA8  00F7               	movwf	__Umul8_16@word_mpld+1
  2188     0FA9                     l1244:
  2189     0FA9  1C78               	btfss	__Umul8_16@multiplier,0
  2190     0FAA  2FAC               	goto	u1241
  2191     0FAB  2FAD               	goto	u1240
  2192     0FAC                     u1241:
  2193     0FAC  2FB3               	goto	l558
  2194     0FAD                     u1240:
  2195     0FAD                     l1246:
  2196     0FAD  0876               	movf	__Umul8_16@word_mpld,w
  2197     0FAE  07F4               	addwf	__Umul8_16@product,f
  2198     0FAF  1803               	skipnc
  2199     0FB0  0AF5               	incf	__Umul8_16@product+1,f
  2200     0FB1  0877               	movf	__Umul8_16@word_mpld+1,w
  2201     0FB2  07F5               	addwf	__Umul8_16@product+1,f
  2202     0FB3                     l558:
  2203     0FB3  3001               	movlw	1
  2204     0FB4                     u1255:
  2205     0FB4  1003               	clrc
  2206     0FB5  0DF6               	rlf	__Umul8_16@word_mpld,f
  2207     0FB6  0DF7               	rlf	__Umul8_16@word_mpld+1,f
  2208     0FB7  3EFF               	addlw	-1
  2209     0FB8  1D03               	skipz
  2210     0FB9  2FB4               	goto	u1255
  2211     0FBA  1003               	clrc
  2212     0FBB  0CF8               	rrf	__Umul8_16@multiplier,f
  2213     0FBC                     l1248:
  2214     0FBC  0878               	movf	__Umul8_16@multiplier,w
  2215     0FBD  1D03               	btfss	3,2
  2216     0FBE  2FC0               	goto	u1261
  2217     0FBF  2FC1               	goto	u1260
  2218     0FC0                     u1261:
  2219     0FC0  2FA9               	goto	l1244
  2220     0FC1                     u1260:
  2221     0FC1                     l1250:
  2222     0FC1  0875               	movf	__Umul8_16@product+1,w
  2223     0FC2  00F1               	movwf	?__Umul8_16+1
  2224     0FC3  0874               	movf	__Umul8_16@product,w
  2225     0FC4  00F0               	movwf	?__Umul8_16
  2226     0FC5                     l560:
  2227     0FC5  0008               	return
  2228     0FC6                     __end_of__Umul8_16:
  2229                           
  2230                           	psect	text5
  2231     02D8                     __ptext5:	
  2232 ;; *************** function ___fldiv *****************
  2233 ;; Defined at:
  2234 ;;		line 8 in file "C:\Program Files\Microchip\xc8\v2.41\pic\sources\c90\common\sprcdiv.c"
  2235 ;; Parameters:    Size  Location     Type
  2236 ;;  a               4    0[BANK0 ] unsigned int 
  2237 ;;  b               4    4[BANK0 ] unsigned int 
  2238 ;; Auto vars:     Size  Location     Type
  2239 ;;  grs             4   20[BANK0 ] unsigned long 
  2240 ;;  rem             4   13[BANK0 ] unsigned long 
  2241 ;;  new_exp         2   18[BANK0 ] int 
  2242 ;;  aexp            1   25[BANK0 ] unsigned char 
  2243 ;;  bexp            1   24[BANK0 ] unsigned char 
  2244 ;;  sign            1   17[BANK0 ] unsigned char 
  2245 ;; Return value:  Size  Location     Type
  2246 ;;                  4    0[BANK0 ] unsigned char 
  2247 ;; Registers used:
  2248 ;;		wreg, status,2, status,0, btemp+1
  2249 ;; Tracked objects:
  2250 ;;		On entry : 0/0
  2251 ;;		On exit  : 0/0
  2252 ;;		Unchanged: 0/0
  2253 ;; Data sizes:     COMMON   BANK0   BANK1   BANK3   BANK2
  2254 ;;      Params:         0       8       0       0       0
  2255 ;;      Locals:         0      13       0       0       0
  2256 ;;      Temps:          0       5       0       0       0
  2257 ;;      Totals:         0      26       0       0       0
  2258 ;;Total ram usage:       26 bytes
  2259 ;; Hardware stack levels used: 1
  2260 ;; This function calls:
  2261 ;;		Nothing
  2262 ;; This function is called by:
  2263 ;;		_main
  2264 ;; This function uses a non-reentrant model
  2265 ;;
  2266                           
  2267     02D8                     ___fldiv:	
  2268                           ;psect for function ___fldiv
  2269                           
  2270     02D8                     l1342:	
  2271                           ;incstack = 0
  2272                           ; Regs used in ___fldiv: [wreg+status,2+status,0+btemp+1]
  2273                           
  2274     02D8  1283               	bcf	3,5	;RP0=0, select bank0
  2275     02D9  1303               	bcf	3,6	;RP1=0, select bank0
  2276     02DA  0827               	movf	___fldiv@b+3,w
  2277     02DB  3980               	andlw	128
  2278     02DC  00B1               	movwf	___fldiv@sign
  2279     02DD                     l1344:
  2280     02DD  0827               	movf	___fldiv@b+3,w
  2281     02DE  00A8               	movwf	??___fldiv
  2282     02DF  0728               	addwf	??___fldiv,w
  2283     02E0  00B8               	movwf	___fldiv@bexp
  2284     02E1                     l1346:
  2285     02E1  1FA6               	btfss	___fldiv@b+2,7
  2286     02E2  2AE4               	goto	u1401
  2287     02E3  2AE5               	goto	u1400
  2288     02E4                     u1401:
  2289     02E4  2AE6               	goto	l1350
  2290     02E5                     u1400:
  2291     02E5                     l1348:
  2292     02E5  1438               	bsf	___fldiv@bexp,0
  2293     02E6                     l1350:
  2294     02E6  0838               	movf	___fldiv@bexp,w
  2295     02E7  1903               	btfsc	3,2
  2296     02E8  2AEA               	goto	u1411
  2297     02E9  2AEB               	goto	u1410
  2298     02EA                     u1411:
  2299     02EA  2AFB               	goto	l1360
  2300     02EB                     u1410:
  2301     02EB                     l1352:
  2302     02EB  0A38               	incf	___fldiv@bexp,w
  2303     02EC  1D03               	btfss	3,2
  2304     02ED  2AEF               	goto	u1421
  2305     02EE  2AF0               	goto	u1420
  2306     02EF                     u1421:
  2307     02EF  2AF8               	goto	l1356
  2308     02F0                     u1420:
  2309     02F0                     l1354:
  2310     02F0  3000               	movlw	0
  2311     02F1  00A7               	movwf	___fldiv@b+3
  2312     02F2  3000               	movlw	0
  2313     02F3  00A6               	movwf	___fldiv@b+2
  2314     02F4  3000               	movlw	0
  2315     02F5  00A5               	movwf	___fldiv@b+1
  2316     02F6  3000               	movlw	0
  2317     02F7  00A4               	movwf	___fldiv@b
  2318     02F8                     l1356:
  2319     02F8  17A6               	bsf	___fldiv@b+2,7
  2320     02F9                     l1358:
  2321     02F9  01A7               	clrf	___fldiv@b+3
  2322     02FA  2B03               	goto	l1362
  2323     02FB                     l1360:
  2324     02FB  3000               	movlw	0
  2325     02FC  00A7               	movwf	___fldiv@b+3
  2326     02FD  3000               	movlw	0
  2327     02FE  00A6               	movwf	___fldiv@b+2
  2328     02FF  3000               	movlw	0
  2329     0300  00A5               	movwf	___fldiv@b+1
  2330     0301  3000               	movlw	0
  2331     0302  00A4               	movwf	___fldiv@b
  2332     0303                     l1362:
  2333     0303  0823               	movf	___fldiv@a+3,w
  2334     0304  3980               	andlw	128
  2335     0305  00FF               	movwf	btemp+1
  2336     0306  087F               	movf	btemp+1,w
  2337     0307  06B1               	xorwf	___fldiv@sign,f
  2338     0308                     l1364:
  2339     0308  0823               	movf	___fldiv@a+3,w
  2340     0309  00A8               	movwf	??___fldiv
  2341     030A  0728               	addwf	??___fldiv,w
  2342     030B  00B9               	movwf	___fldiv@aexp
  2343     030C                     l1366:
  2344     030C  1FA2               	btfss	___fldiv@a+2,7
  2345     030D  2B0F               	goto	u1431
  2346     030E  2B10               	goto	u1430
  2347     030F                     u1431:
  2348     030F  2B11               	goto	l1370
  2349     0310                     u1430:
  2350     0310                     l1368:
  2351     0310  1439               	bsf	___fldiv@aexp,0
  2352     0311                     l1370:
  2353     0311  0839               	movf	___fldiv@aexp,w
  2354     0312  1903               	btfsc	3,2
  2355     0313  2B15               	goto	u1441
  2356     0314  2B16               	goto	u1440
  2357     0315                     u1441:
  2358     0315  2B26               	goto	l1380
  2359     0316                     u1440:
  2360     0316                     l1372:
  2361     0316  0A39               	incf	___fldiv@aexp,w
  2362     0317  1D03               	btfss	3,2
  2363     0318  2B1A               	goto	u1451
  2364     0319  2B1B               	goto	u1450
  2365     031A                     u1451:
  2366     031A  2B23               	goto	l1376
  2367     031B                     u1450:
  2368     031B                     l1374:
  2369     031B  3000               	movlw	0
  2370     031C  00A3               	movwf	___fldiv@a+3
  2371     031D  3000               	movlw	0
  2372     031E  00A2               	movwf	___fldiv@a+2
  2373     031F  3000               	movlw	0
  2374     0320  00A1               	movwf	___fldiv@a+1
  2375     0321  3000               	movlw	0
  2376     0322  00A0               	movwf	___fldiv@a
  2377     0323                     l1376:
  2378     0323  17A2               	bsf	___fldiv@a+2,7
  2379     0324                     l1378:
  2380     0324  01A3               	clrf	___fldiv@a+3
  2381     0325  2B2E               	goto	l499
  2382     0326                     l1380:
  2383     0326  3000               	movlw	0
  2384     0327  00A3               	movwf	___fldiv@a+3
  2385     0328  3000               	movlw	0
  2386     0329  00A2               	movwf	___fldiv@a+2
  2387     032A  3000               	movlw	0
  2388     032B  00A1               	movwf	___fldiv@a+1
  2389     032C  3000               	movlw	0
  2390     032D  00A0               	movwf	___fldiv@a
  2391     032E                     l499:
  2392     032E  0823               	movf	___fldiv@a+3,w
  2393     032F  0422               	iorwf	___fldiv@a+2,w
  2394     0330  0421               	iorwf	___fldiv@a+1,w
  2395     0331  0420               	iorwf	___fldiv@a,w
  2396     0332  1D03               	skipz
  2397     0333  2B35               	goto	u1461
  2398     0334  2B36               	goto	u1460
  2399     0335                     u1461:
  2400     0335  2B4F               	goto	l1390
  2401     0336                     u1460:
  2402     0336                     l1382:
  2403     0336  3000               	movlw	0
  2404     0337  00A7               	movwf	___fldiv@b+3
  2405     0338  3000               	movlw	0
  2406     0339  00A6               	movwf	___fldiv@b+2
  2407     033A  3000               	movlw	0
  2408     033B  00A5               	movwf	___fldiv@b+1
  2409     033C  3000               	movlw	0
  2410     033D  00A4               	movwf	___fldiv@b
  2411     033E  3080               	movlw	128
  2412     033F  04A6               	iorwf	___fldiv@b+2,f
  2413     0340  307F               	movlw	127
  2414     0341  04A7               	iorwf	___fldiv@b+3,f
  2415     0342                     l1384:
  2416     0342  0831               	movf	___fldiv@sign,w
  2417     0343  00FF               	movwf	btemp+1
  2418     0344  087F               	movf	btemp+1,w
  2419     0345  04A7               	iorwf	___fldiv@b+3,f
  2420     0346                     l1386:
  2421     0346  0827               	movf	___fldiv@b+3,w
  2422     0347  00A3               	movwf	?___fldiv+3
  2423     0348  0826               	movf	___fldiv@b+2,w
  2424     0349  00A2               	movwf	?___fldiv+2
  2425     034A  0825               	movf	___fldiv@b+1,w
  2426     034B  00A1               	movwf	?___fldiv+1
  2427     034C  0824               	movf	___fldiv@b,w
  2428     034D  00A0               	movwf	?___fldiv
  2429     034E  2CA6               	goto	l501
  2430     034F                     l1390:
  2431     034F  0838               	movf	___fldiv@bexp,w
  2432     0350  1D03               	btfss	3,2
  2433     0351  2B53               	goto	u1471
  2434     0352  2B54               	goto	u1470
  2435     0353                     u1471:
  2436     0353  2B5D               	goto	l1396
  2437     0354                     u1470:
  2438     0354                     l1392:
  2439     0354  3000               	movlw	0
  2440     0355  00A3               	movwf	?___fldiv+3
  2441     0356  3000               	movlw	0
  2442     0357  00A2               	movwf	?___fldiv+2
  2443     0358  3000               	movlw	0
  2444     0359  00A1               	movwf	?___fldiv+1
  2445     035A  3000               	movlw	0
  2446     035B  00A0               	movwf	?___fldiv
  2447     035C  2CA6               	goto	l501
  2448     035D                     l1396:
  2449     035D  0838               	movf	___fldiv@bexp,w
  2450     035E  00A8               	movwf	??___fldiv
  2451     035F  01A9               	clrf	??___fldiv+1
  2452     0360  0829               	movf	??___fldiv+1,w
  2453     0361  00AB               	movwf	??___fldiv+3
  2454     0362  0839               	movf	___fldiv@aexp,w
  2455     0363  0228               	subwf	??___fldiv,w
  2456     0364  00AA               	movwf	??___fldiv+2
  2457     0365  1C03               	skipc
  2458     0366  03AB               	decf	??___fldiv+3,f
  2459     0367  082A               	movf	??___fldiv+2,w
  2460     0368  3E7F               	addlw	127
  2461     0369  00B2               	movwf	___fldiv@new_exp
  2462     036A  082B               	movf	??___fldiv+3,w
  2463     036B  1803               	skipnc
  2464     036C  3E01               	addlw	1
  2465     036D  3E00               	addlw	0
  2466     036E  00B3               	movwf	___fldiv@new_exp+1
  2467     036F                     l1398:
  2468     036F  0827               	movf	___fldiv@b+3,w
  2469     0370  00B0               	movwf	___fldiv@rem+3
  2470     0371  0826               	movf	___fldiv@b+2,w
  2471     0372  00AF               	movwf	___fldiv@rem+2
  2472     0373  0825               	movf	___fldiv@b+1,w
  2473     0374  00AE               	movwf	___fldiv@rem+1
  2474     0375  0824               	movf	___fldiv@b,w
  2475     0376  00AD               	movwf	___fldiv@rem
  2476     0377                     l1400:
  2477     0377  3000               	movlw	0
  2478     0378  00A7               	movwf	___fldiv@b+3
  2479     0379  3000               	movlw	0
  2480     037A  00A6               	movwf	___fldiv@b+2
  2481     037B  3000               	movlw	0
  2482     037C  00A5               	movwf	___fldiv@b+1
  2483     037D  3000               	movlw	0
  2484     037E  00A4               	movwf	___fldiv@b
  2485     037F                     l1402:
  2486     037F  3000               	movlw	0
  2487     0380  00B7               	movwf	___fldiv@grs+3
  2488     0381  3000               	movlw	0
  2489     0382  00B6               	movwf	___fldiv@grs+2
  2490     0383  3000               	movlw	0
  2491     0384  00B5               	movwf	___fldiv@grs+1
  2492     0385  3000               	movlw	0
  2493     0386  00B4               	movwf	___fldiv@grs
  2494     0387                     l1404:
  2495     0387  01B9               	clrf	___fldiv@aexp
  2496     0388  2BD3               	goto	l1424
  2497     0389                     l1406:
  2498     0389  0839               	movf	___fldiv@aexp,w
  2499     038A  1903               	btfsc	3,2
  2500     038B  2B8D               	goto	u1481
  2501     038C  2B8E               	goto	u1480
  2502     038D                     u1481:
  2503     038D  2BAE               	goto	l1416
  2504     038E                     u1480:
  2505     038E                     l1408:
  2506     038E  3001               	movlw	1
  2507     038F  00A8               	movwf	??___fldiv
  2508     0390                     u1495:
  2509     0390  1003               	clrc
  2510     0391  0DAD               	rlf	___fldiv@rem,f
  2511     0392  0DAE               	rlf	___fldiv@rem+1,f
  2512     0393  0DAF               	rlf	___fldiv@rem+2,f
  2513     0394  0DB0               	rlf	___fldiv@rem+3,f
  2514     0395  0BA8               	decfsz	??___fldiv,f
  2515     0396  2B90               	goto	u1495
  2516     0397  3001               	movlw	1
  2517     0398  00A8               	movwf	??___fldiv
  2518     0399                     u1505:
  2519     0399  1003               	clrc
  2520     039A  0DA4               	rlf	___fldiv@b,f
  2521     039B  0DA5               	rlf	___fldiv@b+1,f
  2522     039C  0DA6               	rlf	___fldiv@b+2,f
  2523     039D  0DA7               	rlf	___fldiv@b+3,f
  2524     039E  0BA8               	decfsz	??___fldiv,f
  2525     039F  2B99               	goto	u1505
  2526     03A0                     l1410:
  2527     03A0  1FB7               	btfss	___fldiv@grs+3,7
  2528     03A1  2BA3               	goto	u1511
  2529     03A2  2BA4               	goto	u1510
  2530     03A3                     u1511:
  2531     03A3  2BA5               	goto	l1414
  2532     03A4                     u1510:
  2533     03A4                     l1412:
  2534     03A4  1424               	bsf	___fldiv@b,0
  2535     03A5                     l1414:
  2536     03A5  3001               	movlw	1
  2537     03A6  00A8               	movwf	??___fldiv
  2538     03A7                     u1525:
  2539     03A7  1003               	clrc
  2540     03A8  0DB4               	rlf	___fldiv@grs,f
  2541     03A9  0DB5               	rlf	___fldiv@grs+1,f
  2542     03AA  0DB6               	rlf	___fldiv@grs+2,f
  2543     03AB  0DB7               	rlf	___fldiv@grs+3,f
  2544     03AC  0BA8               	decfsz	??___fldiv,f
  2545     03AD  2BA7               	goto	u1525
  2546     03AE                     l1416:
  2547     03AE  0823               	movf	___fldiv@a+3,w
  2548     03AF  0230               	subwf	___fldiv@rem+3,w
  2549     03B0  1D03               	skipz
  2550     03B1  2BBC               	goto	u1535
  2551     03B2  0822               	movf	___fldiv@a+2,w
  2552     03B3  022F               	subwf	___fldiv@rem+2,w
  2553     03B4  1D03               	skipz
  2554     03B5  2BBC               	goto	u1535
  2555     03B6  0821               	movf	___fldiv@a+1,w
  2556     03B7  022E               	subwf	___fldiv@rem+1,w
  2557     03B8  1D03               	skipz
  2558     03B9  2BBC               	goto	u1535
  2559     03BA  0820               	movf	___fldiv@a,w
  2560     03BB  022D               	subwf	___fldiv@rem,w
  2561     03BC                     u1535:
  2562     03BC  1C03               	skipc
  2563     03BD  2BBF               	goto	u1531
  2564     03BE  2BC0               	goto	u1530
  2565     03BF                     u1531:
  2566     03BF  2BCF               	goto	l1422
  2567     03C0                     u1530:
  2568     03C0                     l1418:
  2569     03C0  1737               	bsf	___fldiv@grs+3,6
  2570     03C1                     l1420:
  2571     03C1  0820               	movf	___fldiv@a,w
  2572     03C2  02AD               	subwf	___fldiv@rem,f
  2573     03C3  0821               	movf	___fldiv@a+1,w
  2574     03C4  1C03               	skipc
  2575     03C5  0F21               	incfsz	___fldiv@a+1,w
  2576     03C6  02AE               	subwf	___fldiv@rem+1,f
  2577     03C7  0822               	movf	___fldiv@a+2,w
  2578     03C8  1C03               	skipc
  2579     03C9  0F22               	incfsz	___fldiv@a+2,w
  2580     03CA  02AF               	subwf	___fldiv@rem+2,f
  2581     03CB  0823               	movf	___fldiv@a+3,w
  2582     03CC  1C03               	skipc
  2583     03CD  0F23               	incfsz	___fldiv@a+3,w
  2584     03CE  02B0               	subwf	___fldiv@rem+3,f
  2585     03CF                     l1422:
  2586     03CF  3001               	movlw	1
  2587     03D0  00FF               	movwf	btemp+1
  2588     03D1  087F               	movf	btemp+1,w
  2589     03D2  07B9               	addwf	___fldiv@aexp,f
  2590     03D3                     l1424:
  2591     03D3  301A               	movlw	26
  2592     03D4  0239               	subwf	___fldiv@aexp,w
  2593     03D5  1C03               	skipc
  2594     03D6  2BD8               	goto	u1541
  2595     03D7  2BD9               	goto	u1540
  2596     03D8                     u1541:
  2597     03D8  2B89               	goto	l1406
  2598     03D9                     u1540:
  2599     03D9                     l1426:
  2600     03D9  0830               	movf	___fldiv@rem+3,w
  2601     03DA  042F               	iorwf	___fldiv@rem+2,w
  2602     03DB  042E               	iorwf	___fldiv@rem+1,w
  2603     03DC  042D               	iorwf	___fldiv@rem,w
  2604     03DD  1903               	skipnz
  2605     03DE  2BE0               	goto	u1551
  2606     03DF  2BE1               	goto	u1550
  2607     03E0                     u1551:
  2608     03E0  2C00               	goto	l1440
  2609     03E1                     u1550:
  2610     03E1                     l1428:
  2611     03E1  1434               	bsf	___fldiv@grs,0
  2612     03E2  2C00               	goto	l1440
  2613     03E3                     l1430:
  2614     03E3  3001               	movlw	1
  2615     03E4  00A8               	movwf	??___fldiv
  2616     03E5                     u1565:
  2617     03E5  1003               	clrc
  2618     03E6  0DA4               	rlf	___fldiv@b,f
  2619     03E7  0DA5               	rlf	___fldiv@b+1,f
  2620     03E8  0DA6               	rlf	___fldiv@b+2,f
  2621     03E9  0DA7               	rlf	___fldiv@b+3,f
  2622     03EA  0BA8               	decfsz	??___fldiv,f
  2623     03EB  2BE5               	goto	u1565
  2624     03EC                     l1432:
  2625     03EC  1FB7               	btfss	___fldiv@grs+3,7
  2626     03ED  2BEF               	goto	u1571
  2627     03EE  2BF0               	goto	u1570
  2628     03EF                     u1571:
  2629     03EF  2BF1               	goto	l1436
  2630     03F0                     u1570:
  2631     03F0                     l1434:
  2632     03F0  1424               	bsf	___fldiv@b,0
  2633     03F1                     l1436:
  2634     03F1  3001               	movlw	1
  2635     03F2  00A8               	movwf	??___fldiv
  2636     03F3                     u1585:
  2637     03F3  1003               	clrc
  2638     03F4  0DB4               	rlf	___fldiv@grs,f
  2639     03F5  0DB5               	rlf	___fldiv@grs+1,f
  2640     03F6  0DB6               	rlf	___fldiv@grs+2,f
  2641     03F7  0DB7               	rlf	___fldiv@grs+3,f
  2642     03F8  0BA8               	decfsz	??___fldiv,f
  2643     03F9  2BF3               	goto	u1585
  2644     03FA                     l1438:
  2645     03FA  30FF               	movlw	255
  2646     03FB  07B2               	addwf	___fldiv@new_exp,f
  2647     03FC  1803               	skipnc
  2648     03FD  0AB3               	incf	___fldiv@new_exp+1,f
  2649     03FE  30FF               	movlw	255
  2650     03FF  07B3               	addwf	___fldiv@new_exp+1,f
  2651     0400                     l1440:
  2652     0400  1FA6               	btfss	___fldiv@b+2,7
  2653     0401  2C03               	goto	u1591
  2654     0402  2C04               	goto	u1590
  2655     0403                     u1591:
  2656     0403  2BE3               	goto	l1430
  2657     0404                     u1590:
  2658     0404                     l1442:
  2659     0404  01B9               	clrf	___fldiv@aexp
  2660     0405                     l1444:
  2661     0405  1FB7               	btfss	___fldiv@grs+3,7
  2662     0406  2C08               	goto	u1601
  2663     0407  2C09               	goto	u1600
  2664     0408                     u1601:
  2665     0408  2C25               	goto	l1452
  2666     0409                     u1600:
  2667     0409                     l1446:
  2668     0409  30FF               	movlw	255
  2669     040A  0534               	andwf	___fldiv@grs,w
  2670     040B  00A8               	movwf	??___fldiv
  2671     040C  30FF               	movlw	255
  2672     040D  0535               	andwf	___fldiv@grs+1,w
  2673     040E  00A9               	movwf	??___fldiv+1
  2674     040F  30FF               	movlw	255
  2675     0410  0536               	andwf	___fldiv@grs+2,w
  2676     0411  00AA               	movwf	??___fldiv+2
  2677     0412  307F               	movlw	127
  2678     0413  0537               	andwf	___fldiv@grs+3,w
  2679     0414  00AB               	movwf	??___fldiv+3
  2680     0415  082B               	movf	??___fldiv+3,w
  2681     0416  042A               	iorwf	??___fldiv+2,w
  2682     0417  0429               	iorwf	??___fldiv+1,w
  2683     0418  0428               	iorwf	??___fldiv,w
  2684     0419  1903               	skipnz
  2685     041A  2C1C               	goto	u1611
  2686     041B  2C1D               	goto	u1610
  2687     041C                     u1611:
  2688     041C  2C20               	goto	l515
  2689     041D                     u1610:
  2690     041D                     l1448:
  2691     041D  01B9               	clrf	___fldiv@aexp
  2692     041E  0AB9               	incf	___fldiv@aexp,f
  2693     041F  2C25               	goto	l1452
  2694     0420                     l515:
  2695     0420  1C24               	btfss	___fldiv@b,0
  2696     0421  2C23               	goto	u1621
  2697     0422  2C24               	goto	u1620
  2698     0423                     u1621:
  2699     0423  2C25               	goto	l1452
  2700     0424                     u1620:
  2701     0424  2C1D               	goto	l1448
  2702     0425                     l1452:
  2703     0425  0839               	movf	___fldiv@aexp,w
  2704     0426  1903               	btfsc	3,2
  2705     0427  2C29               	goto	u1631
  2706     0428  2C2A               	goto	u1630
  2707     0429                     u1631:
  2708     0429  2C5B               	goto	l1462
  2709     042A                     u1630:
  2710     042A                     l1454:
  2711     042A  3001               	movlw	1
  2712     042B  07A4               	addwf	___fldiv@b,f
  2713     042C  3000               	movlw	0
  2714     042D  1803               	skipnc
  2715     042E  3001               	movlw	1
  2716     042F  07A5               	addwf	___fldiv@b+1,f
  2717     0430  3000               	movlw	0
  2718     0431  1803               	skipnc
  2719     0432  3001               	movlw	1
  2720     0433  07A6               	addwf	___fldiv@b+2,f
  2721     0434  3000               	movlw	0
  2722     0435  1803               	skipnc
  2723     0436  3001               	movlw	1
  2724     0437  07A7               	addwf	___fldiv@b+3,f
  2725     0438                     l1456:
  2726     0438  1C27               	btfss	___fldiv@b+3,0
  2727     0439  2C3B               	goto	u1641
  2728     043A  2C3C               	goto	u1640
  2729     043B                     u1641:
  2730     043B  2C5B               	goto	l1462
  2731     043C                     u1640:
  2732     043C                     l1458:
  2733     043C  0824               	movf	___fldiv@b,w
  2734     043D  00A8               	movwf	??___fldiv
  2735     043E  0825               	movf	___fldiv@b+1,w
  2736     043F  00A9               	movwf	??___fldiv+1
  2737     0440  0826               	movf	___fldiv@b+2,w
  2738     0441  00AA               	movwf	??___fldiv+2
  2739     0442  0827               	movf	___fldiv@b+3,w
  2740     0443  00AB               	movwf	??___fldiv+3
  2741     0444  3001               	movlw	1
  2742     0445  00AC               	movwf	??___fldiv+4
  2743     0446                     u1655:
  2744     0446  0D2B               	rlf	??___fldiv+3,w
  2745     0447  0CAB               	rrf	??___fldiv+3,f
  2746     0448  0CAA               	rrf	??___fldiv+2,f
  2747     0449  0CA9               	rrf	??___fldiv+1,f
  2748     044A  0CA8               	rrf	??___fldiv,f
  2749     044B                     u1650:
  2750     044B  0BAC               	decfsz	??___fldiv+4,f
  2751     044C  2C46               	goto	u1655
  2752     044D  082B               	movf	??___fldiv+3,w
  2753     044E  00A7               	movwf	___fldiv@b+3
  2754     044F  082A               	movf	??___fldiv+2,w
  2755     0450  00A6               	movwf	___fldiv@b+2
  2756     0451  0829               	movf	??___fldiv+1,w
  2757     0452  00A5               	movwf	___fldiv@b+1
  2758     0453  0828               	movf	??___fldiv,w
  2759     0454  00A4               	movwf	___fldiv@b
  2760     0455                     l1460:
  2761     0455  3001               	movlw	1
  2762     0456  07B2               	addwf	___fldiv@new_exp,f
  2763     0457  1803               	skipnc
  2764     0458  0AB3               	incf	___fldiv@new_exp+1,f
  2765     0459  3000               	movlw	0
  2766     045A  07B3               	addwf	___fldiv@new_exp+1,f
  2767     045B                     l1462:
  2768     045B  0833               	movf	___fldiv@new_exp+1,w
  2769     045C  3A80               	xorlw	128
  2770     045D  00FF               	movwf	btemp+1
  2771     045E  3080               	movlw	128
  2772     045F  027F               	subwf	btemp+1,w
  2773     0460  1D03               	skipz
  2774     0461  2C64               	goto	u1665
  2775     0462  30FF               	movlw	255
  2776     0463  0232               	subwf	___fldiv@new_exp,w
  2777     0464                     u1665:
  2778     0464  1C03               	skipc
  2779     0465  2C67               	goto	u1661
  2780     0466  2C68               	goto	u1660
  2781     0467                     u1661:
  2782     0467  2C76               	goto	l1466
  2783     0468                     u1660:
  2784     0468                     l1464:
  2785     0468  30FF               	movlw	255
  2786     0469  1283               	bcf	3,5	;RP0=0, select bank0
  2787     046A  1303               	bcf	3,6	;RP1=0, select bank0
  2788     046B  00B2               	movwf	___fldiv@new_exp
  2789     046C  3000               	movlw	0
  2790     046D  00B3               	movwf	___fldiv@new_exp+1
  2791     046E  3000               	movlw	0
  2792     046F  00A7               	movwf	___fldiv@b+3
  2793     0470  3000               	movlw	0
  2794     0471  00A6               	movwf	___fldiv@b+2
  2795     0472  3000               	movlw	0
  2796     0473  00A5               	movwf	___fldiv@b+1
  2797     0474  3000               	movlw	0
  2798     0475  00A4               	movwf	___fldiv@b
  2799     0476                     l1466:
  2800     0476  1283               	bcf	3,5	;RP0=0, select bank0
  2801     0477  1303               	bcf	3,6	;RP1=0, select bank0
  2802     0478  0833               	movf	___fldiv@new_exp+1,w
  2803     0479  3A80               	xorlw	128
  2804     047A  00FF               	movwf	btemp+1
  2805     047B  3080               	movlw	128
  2806     047C  027F               	subwf	btemp+1,w
  2807     047D  1D03               	skipz
  2808     047E  2C81               	goto	u1675
  2809     047F  3001               	movlw	1
  2810     0480  0232               	subwf	___fldiv@new_exp,w
  2811     0481                     u1675:
  2812     0481  1803               	skipnc
  2813     0482  2C84               	goto	u1671
  2814     0483  2C85               	goto	u1670
  2815     0484                     u1671:
  2816     0484  2C92               	goto	l521
  2817     0485                     u1670:
  2818     0485                     l1468:
  2819     0485  1283               	bcf	3,5	;RP0=0, select bank0
  2820     0486  1303               	bcf	3,6	;RP1=0, select bank0
  2821     0487  01B2               	clrf	___fldiv@new_exp
  2822     0488  01B3               	clrf	___fldiv@new_exp+1
  2823     0489                     l1470:
  2824     0489  3000               	movlw	0
  2825     048A  00A7               	movwf	___fldiv@b+3
  2826     048B  3000               	movlw	0
  2827     048C  00A6               	movwf	___fldiv@b+2
  2828     048D  3000               	movlw	0
  2829     048E  00A5               	movwf	___fldiv@b+1
  2830     048F  3000               	movlw	0
  2831     0490  00A4               	movwf	___fldiv@b
  2832     0491                     l1472:
  2833     0491  01B1               	clrf	___fldiv@sign
  2834     0492                     l521:
  2835     0492  1283               	bcf	3,5	;RP0=0, select bank0
  2836     0493  1303               	bcf	3,6	;RP1=0, select bank0
  2837     0494  0832               	movf	___fldiv@new_exp,w
  2838     0495  00B8               	movwf	___fldiv@bexp
  2839     0496                     l1474:
  2840     0496  1C38               	btfss	___fldiv@bexp,0
  2841     0497  2C99               	goto	u1681
  2842     0498  2C9A               	goto	u1680
  2843     0499                     u1681:
  2844     0499  2C9C               	goto	l1478
  2845     049A                     u1680:
  2846     049A                     l1476:
  2847     049A  17A6               	bsf	___fldiv@b+2,7
  2848     049B  2CA0               	goto	l1480
  2849     049C                     l1478:
  2850     049C  307F               	movlw	127
  2851     049D  00FF               	movwf	btemp+1
  2852     049E  087F               	movf	btemp+1,w
  2853     049F  05A6               	andwf	___fldiv@b+2,f
  2854     04A0                     l1480:
  2855     04A0  0838               	movf	___fldiv@bexp,w
  2856     04A1  00A8               	movwf	??___fldiv
  2857     04A2  1003               	clrc
  2858     04A3  0C28               	rrf	??___fldiv,w
  2859     04A4  00A7               	movwf	___fldiv@b+3
  2860     04A5  2B42               	goto	l1384
  2861     04A6                     l501:
  2862     04A6  0008               	return
  2863     04A7                     __end_of___fldiv:
  2864                           
  2865                           	psect	text6
  2866     00A5                     __ptext6:	
  2867 ;; *************** function _Lcd_printing *****************
  2868 ;; Defined at:
  2869 ;;		line 82 in file "AtoD_class.c"
  2870 ;; Parameters:    Size  Location     Type
  2871 ;;  value           2    7[COMMON] unsigned int 
  2872 ;; Auto vars:     Size  Location     Type
  2873 ;;  i               2    8[BANK0 ] int 
  2874 ;;  space           6    0[BANK0 ] unsigned int [3]
  2875 ;;  temp            2    6[BANK0 ] int 
  2876 ;; Return value:  Size  Location     Type
  2877 ;;                  1    wreg      void 
  2878 ;; Registers used:
  2879 ;;		wreg, fsr0l, fsr0h, status,2, status,0, btemp+1, pclath, cstack
  2880 ;; Tracked objects:
  2881 ;;		On entry : 0/0
  2882 ;;		On exit  : 0/0
  2883 ;;		Unchanged: 0/0
  2884 ;; Data sizes:     COMMON   BANK0   BANK1   BANK3   BANK2
  2885 ;;      Params:         2       0       0       0       0
  2886 ;;      Locals:         0      10       0       0       0
  2887 ;;      Temps:          1       0       0       0       0
  2888 ;;      Totals:         3      10       0       0       0
  2889 ;;Total ram usage:       13 bytes
  2890 ;; Hardware stack levels used: 1
  2891 ;; Hardware stack levels required when called: 1
  2892 ;; This function calls:
  2893 ;;		_Lcd_display
  2894 ;;		___lwdiv
  2895 ;;		___lwmod
  2896 ;; This function is called by:
  2897 ;;		_main
  2898 ;; This function uses a non-reentrant model
  2899 ;;
  2900                           
  2901     00A5                     _Lcd_printing:	
  2902                           ;psect for function _Lcd_printing
  2903                           
  2904     00A5                     l1278:	
  2905                           ;incstack = 0
  2906                           ; Regs used in _Lcd_printing: [wreg-fsr0h+status,2+status,0+btemp+1+pclath+cstack]
  2907                           
  2908                           
  2909                           ;AtoD_class.c: 83:     unsigned int space[3]={0,0,0};
  2910     00A5  3020               	movlw	Lcd_printing@space& (0+255)
  2911     00A6  0084               	movwf	4
  2912     00A7  3006               	movlw	6
  2913     00A8  00FF               	movwf	btemp+1
  2914     00A9                     u1270:
  2915     00A9  1383               	bcf	3,7	;select IRP bank0
  2916     00AA  0180               	clrf	0
  2917     00AB  0A84               	incf	4,f
  2918     00AC  0BFF               	decfsz	btemp+1,f
  2919     00AD  28A9               	goto	u1270
  2920     00AE                     l1280:
  2921                           
  2922                           ;AtoD_class.c: 84:     int temp=0;
  2923     00AE  1283               	bcf	3,5	;RP0=0, select bank0
  2924     00AF  1303               	bcf	3,6	;RP1=0, select bank0
  2925     00B0  01A6               	clrf	Lcd_printing@temp
  2926     00B1  01A7               	clrf	Lcd_printing@temp+1
  2927                           
  2928                           ;AtoD_class.c: 85:     while(value!=0){
  2929     00B2  28E6               	goto	l1288
  2930     00B3                     l1282:
  2931                           
  2932                           ;AtoD_class.c: 86:         space[temp]=(value%10);
  2933     00B3  300A               	movlw	10
  2934     00B4  00F0               	movwf	___lwmod@divisor
  2935     00B5  3000               	movlw	0
  2936     00B6  00F1               	movwf	___lwmod@divisor+1
  2937     00B7  0878               	movf	Lcd_printing@value+1,w
  2938     00B8  00F3               	movwf	___lwmod@dividend+1
  2939     00B9  0877               	movf	Lcd_printing@value,w
  2940     00BA  00F2               	movwf	___lwmod@dividend
  2941     00BB  120A  158A  27C6  120A  118A  	fcall	___lwmod
  2942     00C0  1283               	bcf	3,5	;RP0=0, select bank0
  2943     00C1  1303               	bcf	3,6	;RP1=0, select bank0
  2944     00C2  0826               	movf	Lcd_printing@temp,w
  2945     00C3  00F9               	movwf	??_Lcd_printing
  2946     00C4  0779               	addwf	??_Lcd_printing,w
  2947     00C5  3E20               	addlw	(low (Lcd_printing@space| 0))& (0+255)
  2948     00C6  0084               	movwf	4
  2949     00C7  0870               	movf	?___lwmod,w
  2950     00C8  1383               	bcf	3,7	;select IRP bank0
  2951     00C9  0080               	movwf	0
  2952     00CA  0A84               	incf	4,f
  2953     00CB  0871               	movf	?___lwmod+1,w
  2954     00CC  0080               	movwf	0
  2955     00CD                     l1284:
  2956                           
  2957                           ;AtoD_class.c: 87:         temp=temp+1;
  2958     00CD  0826               	movf	Lcd_printing@temp,w
  2959     00CE  3E01               	addlw	1
  2960     00CF  00A6               	movwf	Lcd_printing@temp
  2961     00D0  0827               	movf	Lcd_printing@temp+1,w
  2962     00D1  1803               	skipnc
  2963     00D2  3E01               	addlw	1
  2964     00D3  3E00               	addlw	0
  2965     00D4  00A7               	movwf	Lcd_printing@temp+1
  2966     00D5                     l1286:
  2967                           
  2968                           ;AtoD_class.c: 88:         value/=10;
  2969     00D5  300A               	movlw	10
  2970     00D6  00F0               	movwf	___lwdiv@divisor
  2971     00D7  3000               	movlw	0
  2972     00D8  00F1               	movwf	___lwdiv@divisor+1
  2973     00D9  0878               	movf	Lcd_printing@value+1,w
  2974     00DA  00F3               	movwf	___lwdiv@dividend+1
  2975     00DB  0877               	movf	Lcd_printing@value,w
  2976     00DC  00F2               	movwf	___lwdiv@dividend
  2977     00DD  120A  118A  2014  120A  118A  	fcall	___lwdiv
  2978     00E2  0871               	movf	?___lwdiv+1,w
  2979     00E3  00F8               	movwf	Lcd_printing@value+1
  2980     00E4  0870               	movf	?___lwdiv,w
  2981     00E5  00F7               	movwf	Lcd_printing@value
  2982     00E6                     l1288:
  2983                           
  2984                           ;AtoD_class.c: 85:     while(value!=0){
  2985     00E6  0877               	movf	Lcd_printing@value,w
  2986     00E7  0478               	iorwf	Lcd_printing@value+1,w
  2987     00E8  1D03               	btfss	3,2
  2988     00E9  28EB               	goto	u1281
  2989     00EA  28EC               	goto	u1280
  2990     00EB                     u1281:
  2991     00EB  28B3               	goto	l1282
  2992     00EC                     u1280:
  2993     00EC                     l1290:
  2994                           
  2995                           ;AtoD_class.c: 91:     for(int i=2;i>=0;i--){
  2996     00EC  3002               	movlw	2
  2997     00ED  1283               	bcf	3,5	;RP0=0, select bank0
  2998     00EE  1303               	bcf	3,6	;RP1=0, select bank0
  2999     00EF  00A8               	movwf	Lcd_printing@i
  3000     00F0  3000               	movlw	0
  3001     00F1  00A9               	movwf	Lcd_printing@i+1
  3002     00F2                     l1296:
  3003                           
  3004                           ;AtoD_class.c: 92:         Lcd_display((unsigned char)space[i]+48);
  3005     00F2  0828               	movf	Lcd_printing@i,w
  3006     00F3  00F9               	movwf	??_Lcd_printing
  3007     00F4  0779               	addwf	??_Lcd_printing,w
  3008     00F5  3E20               	addlw	(low (Lcd_printing@space| 0))& (0+255)
  3009     00F6  0084               	movwf	4
  3010     00F7  1383               	bcf	3,7	;select IRP bank0
  3011     00F8  0800               	movf	0,w
  3012     00F9  3E30               	addlw	48
  3013     00FA  120A  158A  2774  120A  118A  	fcall	_Lcd_display
  3014     00FF                     l1298:
  3015                           
  3016                           ;AtoD_class.c: 94:     }Lcd_display('V');
  3017     00FF  30FF               	movlw	255
  3018     0100  1283               	bcf	3,5	;RP0=0, select bank0
  3019     0101  1303               	bcf	3,6	;RP1=0, select bank0
  3020     0102  07A8               	addwf	Lcd_printing@i,f
  3021     0103  1803               	skipnc
  3022     0104  0AA9               	incf	Lcd_printing@i+1,f
  3023     0105  30FF               	movlw	255
  3024     0106  07A9               	addwf	Lcd_printing@i+1,f
  3025     0107                     l1300:
  3026     0107  1FA9               	btfss	Lcd_printing@i+1,7
  3027     0108  290A               	goto	u1291
  3028     0109  290B               	goto	u1290
  3029     010A                     u1291:
  3030     010A  28F2               	goto	l1296
  3031     010B                     u1290:
  3032     010B                     l1302:
  3033     010B  3056               	movlw	86
  3034     010C  120A  158A  2774  120A  118A  	fcall	_Lcd_display
  3035     0111                     l64:
  3036     0111  0008               	return
  3037     0112                     __end_of_Lcd_printing:
  3038                           
  3039                           	psect	text7
  3040     0FC6                     __ptext7:	
  3041 ;; *************** function ___lwmod *****************
  3042 ;; Defined at:
  3043 ;;		line 5 in file "C:\Program Files\Microchip\xc8\v2.41\pic\sources\c90\common\lwmod.c"
  3044 ;; Parameters:    Size  Location     Type
  3045 ;;  divisor         2    0[COMMON] unsigned int 
  3046 ;;  dividend        2    2[COMMON] unsigned int 
  3047 ;; Auto vars:     Size  Location     Type
  3048 ;;  counter         1    4[COMMON] unsigned char 
  3049 ;; Return value:  Size  Location     Type
  3050 ;;                  2    0[COMMON] unsigned int 
  3051 ;; Registers used:
  3052 ;;		wreg, status,2, status,0, btemp+1
  3053 ;; Tracked objects:
  3054 ;;		On entry : 0/0
  3055 ;;		On exit  : 0/0
  3056 ;;		Unchanged: 0/0
  3057 ;; Data sizes:     COMMON   BANK0   BANK1   BANK3   BANK2
  3058 ;;      Params:         4       0       0       0       0
  3059 ;;      Locals:         1       0       0       0       0
  3060 ;;      Temps:          0       0       0       0       0
  3061 ;;      Totals:         5       0       0       0       0
  3062 ;;Total ram usage:        5 bytes
  3063 ;; Hardware stack levels used: 1
  3064 ;; This function calls:
  3065 ;;		Nothing
  3066 ;; This function is called by:
  3067 ;;		_Lcd_printing
  3068 ;; This function uses a non-reentrant model
  3069 ;;
  3070                           
  3071     0FC6                     ___lwmod:	
  3072                           ;psect for function ___lwmod
  3073                           
  3074     0FC6                     l1218:	
  3075                           ;incstack = 0
  3076                           ; Regs used in ___lwmod: [wreg+status,2+status,0+btemp+1]
  3077                           
  3078     0FC6  0870               	movf	___lwmod@divisor,w
  3079     0FC7  0471               	iorwf	___lwmod@divisor+1,w
  3080     0FC8  1903               	btfsc	3,2
  3081     0FC9  2FCB               	goto	u1181
  3082     0FCA  2FCC               	goto	u1180
  3083     0FCB                     u1181:
  3084     0FCB  2FFB               	goto	l1236
  3085     0FCC                     u1180:
  3086     0FCC                     l1220:
  3087     0FCC  01F4               	clrf	___lwmod@counter
  3088     0FCD  0AF4               	incf	___lwmod@counter,f
  3089     0FCE  2FDA               	goto	l1226
  3090     0FCF                     l1222:
  3091     0FCF  3001               	movlw	1
  3092     0FD0                     u1195:
  3093     0FD0  1003               	clrc
  3094     0FD1  0DF0               	rlf	___lwmod@divisor,f
  3095     0FD2  0DF1               	rlf	___lwmod@divisor+1,f
  3096     0FD3  3EFF               	addlw	-1
  3097     0FD4  1D03               	skipz
  3098     0FD5  2FD0               	goto	u1195
  3099     0FD6                     l1224:
  3100     0FD6  3001               	movlw	1
  3101     0FD7  00FF               	movwf	btemp+1
  3102     0FD8  087F               	movf	btemp+1,w
  3103     0FD9  07F4               	addwf	___lwmod@counter,f
  3104     0FDA                     l1226:
  3105     0FDA  1FF1               	btfss	___lwmod@divisor+1,7
  3106     0FDB  2FDD               	goto	u1201
  3107     0FDC  2FDE               	goto	u1200
  3108     0FDD                     u1201:
  3109     0FDD  2FCF               	goto	l1222
  3110     0FDE                     u1200:
  3111     0FDE                     l1228:
  3112     0FDE  0871               	movf	___lwmod@divisor+1,w
  3113     0FDF  0273               	subwf	___lwmod@dividend+1,w
  3114     0FE0  1D03               	skipz
  3115     0FE1  2FE4               	goto	u1215
  3116     0FE2  0870               	movf	___lwmod@divisor,w
  3117     0FE3  0272               	subwf	___lwmod@dividend,w
  3118     0FE4                     u1215:
  3119     0FE4  1C03               	skipc
  3120     0FE5  2FE7               	goto	u1211
  3121     0FE6  2FE8               	goto	u1210
  3122     0FE7                     u1211:
  3123     0FE7  2FEE               	goto	l1232
  3124     0FE8                     u1210:
  3125     0FE8                     l1230:
  3126     0FE8  0870               	movf	___lwmod@divisor,w
  3127     0FE9  02F2               	subwf	___lwmod@dividend,f
  3128     0FEA  0871               	movf	___lwmod@divisor+1,w
  3129     0FEB  1C03               	skipc
  3130     0FEC  03F3               	decf	___lwmod@dividend+1,f
  3131     0FED  02F3               	subwf	___lwmod@dividend+1,f
  3132     0FEE                     l1232:
  3133     0FEE  3001               	movlw	1
  3134     0FEF                     u1225:
  3135     0FEF  1003               	clrc
  3136     0FF0  0CF1               	rrf	___lwmod@divisor+1,f
  3137     0FF1  0CF0               	rrf	___lwmod@divisor,f
  3138     0FF2  3EFF               	addlw	-1
  3139     0FF3  1D03               	skipz
  3140     0FF4  2FEF               	goto	u1225
  3141     0FF5                     l1234:
  3142     0FF5  3001               	movlw	1
  3143     0FF6  02F4               	subwf	___lwmod@counter,f
  3144     0FF7  1D03               	btfss	3,2
  3145     0FF8  2FFA               	goto	u1231
  3146     0FF9  2FFB               	goto	u1230
  3147     0FFA                     u1231:
  3148     0FFA  2FDE               	goto	l1228
  3149     0FFB                     u1230:
  3150     0FFB                     l1236:
  3151     0FFB  0873               	movf	___lwmod@dividend+1,w
  3152     0FFC  00F1               	movwf	?___lwmod+1
  3153     0FFD  0872               	movf	___lwmod@dividend,w
  3154     0FFE  00F0               	movwf	?___lwmod
  3155     0FFF                     l432:
  3156     0FFF  0008               	return
  3157     1000                     __end_of___lwmod:
  3158                           
  3159                           	psect	text8
  3160     0014                     __ptext8:	
  3161 ;; *************** function ___lwdiv *****************
  3162 ;; Defined at:
  3163 ;;		line 5 in file "C:\Program Files\Microchip\xc8\v2.41\pic\sources\c90\common\lwdiv.c"
  3164 ;; Parameters:    Size  Location     Type
  3165 ;;  divisor         2    0[COMMON] unsigned int 
  3166 ;;  dividend        2    2[COMMON] unsigned int 
  3167 ;; Auto vars:     Size  Location     Type
  3168 ;;  quotient        2    4[COMMON] unsigned int 
  3169 ;;  counter         1    6[COMMON] unsigned char 
  3170 ;; Return value:  Size  Location     Type
  3171 ;;                  2    0[COMMON] unsigned int 
  3172 ;; Registers used:
  3173 ;;		wreg, status,2, status,0, btemp+1
  3174 ;; Tracked objects:
  3175 ;;		On entry : 0/0
  3176 ;;		On exit  : 0/0
  3177 ;;		Unchanged: 0/0
  3178 ;; Data sizes:     COMMON   BANK0   BANK1   BANK3   BANK2
  3179 ;;      Params:         4       0       0       0       0
  3180 ;;      Locals:         3       0       0       0       0
  3181 ;;      Temps:          0       0       0       0       0
  3182 ;;      Totals:         7       0       0       0       0
  3183 ;;Total ram usage:        7 bytes
  3184 ;; Hardware stack levels used: 1
  3185 ;; This function calls:
  3186 ;;		Nothing
  3187 ;; This function is called by:
  3188 ;;		_Lcd_printing
  3189 ;; This function uses a non-reentrant model
  3190 ;;
  3191                           
  3192     0014                     ___lwdiv:	
  3193                           ;psect for function ___lwdiv
  3194                           
  3195     0014                     l1192:	
  3196                           ;incstack = 0
  3197                           ; Regs used in ___lwdiv: [wreg+status,2+status,0+btemp+1]
  3198                           
  3199     0014  01F4               	clrf	___lwdiv@quotient
  3200     0015  01F5               	clrf	___lwdiv@quotient+1
  3201     0016                     l1194:
  3202     0016  0870               	movf	___lwdiv@divisor,w
  3203     0017  0471               	iorwf	___lwdiv@divisor+1,w
  3204     0018  1903               	btfsc	3,2
  3205     0019  281B               	goto	u1111
  3206     001A  281C               	goto	u1110
  3207     001B                     u1111:
  3208     001B  2853               	goto	l1214
  3209     001C                     u1110:
  3210     001C                     l1196:
  3211     001C  01F6               	clrf	___lwdiv@counter
  3212     001D  0AF6               	incf	___lwdiv@counter,f
  3213     001E  282A               	goto	l1202
  3214     001F                     l1198:
  3215     001F  3001               	movlw	1
  3216     0020                     u1125:
  3217     0020  1003               	clrc
  3218     0021  0DF0               	rlf	___lwdiv@divisor,f
  3219     0022  0DF1               	rlf	___lwdiv@divisor+1,f
  3220     0023  3EFF               	addlw	-1
  3221     0024  1D03               	skipz
  3222     0025  2820               	goto	u1125
  3223     0026                     l1200:
  3224     0026  3001               	movlw	1
  3225     0027  00FF               	movwf	btemp+1
  3226     0028  087F               	movf	btemp+1,w
  3227     0029  07F6               	addwf	___lwdiv@counter,f
  3228     002A                     l1202:
  3229     002A  1FF1               	btfss	___lwdiv@divisor+1,7
  3230     002B  282D               	goto	u1131
  3231     002C  282E               	goto	u1130
  3232     002D                     u1131:
  3233     002D  281F               	goto	l1198
  3234     002E                     u1130:
  3235     002E                     l1204:
  3236     002E  3001               	movlw	1
  3237     002F                     u1145:
  3238     002F  1003               	clrc
  3239     0030  0DF4               	rlf	___lwdiv@quotient,f
  3240     0031  0DF5               	rlf	___lwdiv@quotient+1,f
  3241     0032  3EFF               	addlw	-1
  3242     0033  1D03               	skipz
  3243     0034  282F               	goto	u1145
  3244     0035  0871               	movf	___lwdiv@divisor+1,w
  3245     0036  0273               	subwf	___lwdiv@dividend+1,w
  3246     0037  1D03               	skipz
  3247     0038  283B               	goto	u1155
  3248     0039  0870               	movf	___lwdiv@divisor,w
  3249     003A  0272               	subwf	___lwdiv@dividend,w
  3250     003B                     u1155:
  3251     003B  1C03               	skipc
  3252     003C  283E               	goto	u1151
  3253     003D  283F               	goto	u1150
  3254     003E                     u1151:
  3255     003E  2846               	goto	l1210
  3256     003F                     u1150:
  3257     003F                     l1206:
  3258     003F  0870               	movf	___lwdiv@divisor,w
  3259     0040  02F2               	subwf	___lwdiv@dividend,f
  3260     0041  0871               	movf	___lwdiv@divisor+1,w
  3261     0042  1C03               	skipc
  3262     0043  03F3               	decf	___lwdiv@dividend+1,f
  3263     0044  02F3               	subwf	___lwdiv@dividend+1,f
  3264     0045                     l1208:
  3265     0045  1474               	bsf	___lwdiv@quotient,0
  3266     0046                     l1210:
  3267     0046  3001               	movlw	1
  3268     0047                     u1165:
  3269     0047  1003               	clrc
  3270     0048  0CF1               	rrf	___lwdiv@divisor+1,f
  3271     0049  0CF0               	rrf	___lwdiv@divisor,f
  3272     004A  3EFF               	addlw	-1
  3273     004B  1D03               	skipz
  3274     004C  2847               	goto	u1165
  3275     004D                     l1212:
  3276     004D  3001               	movlw	1
  3277     004E  02F6               	subwf	___lwdiv@counter,f
  3278     004F  1D03               	btfss	3,2
  3279     0050  2852               	goto	u1171
  3280     0051  2853               	goto	u1170
  3281     0052                     u1171:
  3282     0052  282E               	goto	l1204
  3283     0053                     u1170:
  3284     0053                     l1214:
  3285     0053  0875               	movf	___lwdiv@quotient+1,w
  3286     0054  00F1               	movwf	?___lwdiv+1
  3287     0055  0874               	movf	___lwdiv@quotient,w
  3288     0056  00F0               	movwf	?___lwdiv
  3289     0057                     l422:
  3290     0057  0008               	return
  3291     0058                     __end_of___lwdiv:
  3292                           
  3293                           	psect	text9
  3294     0F74                     __ptext9:	
  3295 ;; *************** function _Lcd_display *****************
  3296 ;; Defined at:
  3297 ;;		line 73 in file "AtoD_class.c"
  3298 ;; Parameters:    Size  Location     Type
  3299 ;;  data            1    wreg     unsigned char 
  3300 ;; Auto vars:     Size  Location     Type
  3301 ;;  data            1    2[COMMON] unsigned char 
  3302 ;; Return value:  Size  Location     Type
  3303 ;;                  1    wreg      void 
  3304 ;; Registers used:
  3305 ;;		wreg, status,2, status,0, btemp+1
  3306 ;; Tracked objects:
  3307 ;;		On entry : 0/0
  3308 ;;		On exit  : 0/0
  3309 ;;		Unchanged: 0/0
  3310 ;; Data sizes:     COMMON   BANK0   BANK1   BANK3   BANK2
  3311 ;;      Params:         0       0       0       0       0
  3312 ;;      Locals:         1       0       0       0       0
  3313 ;;      Temps:          2       0       0       0       0
  3314 ;;      Totals:         3       0       0       0       0
  3315 ;;Total ram usage:        3 bytes
  3316 ;; Hardware stack levels used: 1
  3317 ;; This function calls:
  3318 ;;		Nothing
  3319 ;; This function is called by:
  3320 ;;		_Lcd_printing
  3321 ;; This function uses a non-reentrant model
  3322 ;;
  3323                           
  3324     0F74                     _Lcd_display:	
  3325                           ;psect for function _Lcd_display
  3326                           
  3327                           
  3328                           ;incstack = 0
  3329                           ; Regs used in _Lcd_display: [wreg+status,2+status,0+btemp+1]
  3330                           ;Lcd_display@data stored from wreg
  3331     0F74  00F2               	movwf	Lcd_display@data
  3332     0F75                     l1182:
  3333                           
  3334                           ;AtoD_class.c: 74:     PORTC |=0x08;
  3335     0F75  1283               	bcf	3,5	;RP0=0, select bank0
  3336     0F76  1303               	bcf	3,6	;RP1=0, select bank0
  3337     0F77  1587               	bsf	7,3	;volatile
  3338     0F78                     l1184:
  3339                           
  3340                           ;AtoD_class.c: 75:     PORTD=data;
  3341     0F78  0872               	movf	Lcd_display@data,w
  3342     0F79  0088               	movwf	8	;volatile
  3343     0F7A                     l1186:
  3344                           
  3345                           ;AtoD_class.c: 76:     PORTC |=0x01;
  3346     0F7A  1407               	bsf	7,0	;volatile
  3347     0F7B                     l1188:
  3348                           
  3349                           ;AtoD_class.c: 77:     PORTC &=~0x01;
  3350     0F7B  30FE               	movlw	254
  3351     0F7C  00FF               	movwf	btemp+1
  3352     0F7D  087F               	movf	btemp+1,w
  3353     0F7E  0587               	andwf	7,f	;volatile
  3354     0F7F                     l1190:
  3355                           
  3356                           ;AtoD_class.c: 78:     _delay((unsigned long)((100)*(6000000/4000.0)));
  3357     0F7F  30C3               	movlw	195
  3358     0F80  00F1               	movwf	??_Lcd_display+1
  3359     0F81  30CD               	movlw	205
  3360     0F82  00F0               	movwf	??_Lcd_display
  3361     0F83                     u2227:
  3362     0F83  0BF0               	decfsz	??_Lcd_display,f
  3363     0F84  2F83               	goto	u2227
  3364     0F85  0BF1               	decfsz	??_Lcd_display+1,f
  3365     0F86  2F83               	goto	u2227
  3366     0F87                     l54:
  3367     0F87  0008               	return
  3368     0F88                     __end_of_Lcd_display:
  3369                           
  3370                           	psect	text10
  3371     0058                     __ptext10:	
  3372 ;; *************** function _Configuration *****************
  3373 ;; Defined at:
  3374 ;;		line 46 in file "AtoD_class.c"
  3375 ;; Parameters:    Size  Location     Type
  3376 ;;		None
  3377 ;; Auto vars:     Size  Location     Type
  3378 ;;		None
  3379 ;; Return value:  Size  Location     Type
  3380 ;;                  1    wreg      void 
  3381 ;; Registers used:
  3382 ;;		wreg, status,2, status,0, btemp+1, pclath, cstack
  3383 ;; Tracked objects:
  3384 ;;		On entry : 0/0
  3385 ;;		On exit  : 0/0
  3386 ;;		Unchanged: 0/0
  3387 ;; Data sizes:     COMMON   BANK0   BANK1   BANK3   BANK2
  3388 ;;      Params:         0       0       0       0       0
  3389 ;;      Locals:         0       0       0       0       0
  3390 ;;      Temps:          2       0       0       0       0
  3391 ;;      Totals:         2       0       0       0       0
  3392 ;;Total ram usage:        2 bytes
  3393 ;; Hardware stack levels used: 1
  3394 ;; Hardware stack levels required when called: 1
  3395 ;; This function calls:
  3396 ;;		_Lcd_command
  3397 ;; This function is called by:
  3398 ;;		_main
  3399 ;; This function uses a non-reentrant model
  3400 ;;
  3401                           
  3402     0058                     _Configuration:	
  3403                           ;psect for function _Configuration
  3404                           
  3405     0058                     l1254:	
  3406                           ;incstack = 0
  3407                           ; Regs used in _Configuration: [wreg+status,2+status,0+btemp+1+pclath+cstack]
  3408                           
  3409                           
  3410                           ;AtoD_class.c: 47:     TRISD=0x00;
  3411     0058  1683               	bsf	3,5	;RP0=1, select bank1
  3412     0059  1303               	bcf	3,6	;RP1=0, select bank1
  3413     005A  0188               	clrf	8	;volatile
  3414                           
  3415                           ;AtoD_class.c: 48:     TRISC=0x00;
  3416     005B  0187               	clrf	7	;volatile
  3417                           
  3418                           ;AtoD_class.c: 49:     PORTC=0x00;
  3419     005C  1283               	bcf	3,5	;RP0=0, select bank0
  3420     005D  1303               	bcf	3,6	;RP1=0, select bank0
  3421     005E  0187               	clrf	7	;volatile
  3422                           
  3423                           ;AtoD_class.c: 50:     PORTD=0x00;
  3424     005F  0188               	clrf	8	;volatile
  3425     0060                     l1256:
  3426                           
  3427                           ;AtoD_class.c: 51:     TRISA=0x01;
  3428     0060  3001               	movlw	1
  3429     0061  1683               	bsf	3,5	;RP0=1, select bank1
  3430     0062  1303               	bcf	3,6	;RP1=0, select bank1
  3431     0063  0085               	movwf	5	;volatile
  3432     0064                     l1258:
  3433                           
  3434                           ;AtoD_class.c: 52:     ADCON0=0x81;
  3435     0064  3081               	movlw	129
  3436     0065  1283               	bcf	3,5	;RP0=0, select bank0
  3437     0066  1303               	bcf	3,6	;RP1=0, select bank0
  3438     0067  009F               	movwf	31	;volatile
  3439     0068                     l1260:
  3440                           
  3441                           ;AtoD_class.c: 53:     ADCON1=0x8E;
  3442     0068  308E               	movlw	142
  3443     0069  1683               	bsf	3,5	;RP0=1, select bank1
  3444     006A  1303               	bcf	3,6	;RP1=0, select bank1
  3445     006B  009F               	movwf	31	;volatile
  3446     006C                     l1262:
  3447                           
  3448                           ;AtoD_class.c: 54:     Lcd_command(0x38);
  3449     006C  3038               	movlw	56
  3450     006D  120A  158A  2788  120A  118A  	fcall	_Lcd_command
  3451     0072                     l1264:
  3452                           
  3453                           ;AtoD_class.c: 55:    _delay((unsigned long)((100)*(6000000/4000.0)));
  3454     0072  30C3               	movlw	195
  3455     0073  00F4               	movwf	??_Configuration+1
  3456     0074  30CD               	movlw	205
  3457     0075  00F3               	movwf	??_Configuration
  3458     0076                     u2237:
  3459     0076  0BF3               	decfsz	??_Configuration,f
  3460     0077  2876               	goto	u2237
  3461     0078  0BF4               	decfsz	??_Configuration+1,f
  3462     0079  2876               	goto	u2237
  3463     007A                     l1266:
  3464                           
  3465                           ;AtoD_class.c: 56:    Lcd_command(0x01);
  3466     007A  3001               	movlw	1
  3467     007B  120A  158A  2788  120A  118A  	fcall	_Lcd_command
  3468     0080                     l1268:
  3469                           
  3470                           ;AtoD_class.c: 57:    _delay((unsigned long)((100)*(6000000/4000.0)));
  3471     0080  30C3               	movlw	195
  3472     0081  00F4               	movwf	??_Configuration+1
  3473     0082  30CD               	movlw	205
  3474     0083  00F3               	movwf	??_Configuration
  3475     0084                     u2247:
  3476     0084  0BF3               	decfsz	??_Configuration,f
  3477     0085  2884               	goto	u2247
  3478     0086  0BF4               	decfsz	??_Configuration+1,f
  3479     0087  2884               	goto	u2247
  3480     0088                     l1270:
  3481                           
  3482                           ;AtoD_class.c: 58:    Lcd_command(0x06);
  3483     0088  3006               	movlw	6
  3484     0089  120A  158A  2788  120A  118A  	fcall	_Lcd_command
  3485     008E                     l1272:
  3486                           
  3487                           ;AtoD_class.c: 59:    _delay((unsigned long)((100)*(6000000/4000.0)));
  3488     008E  30C3               	movlw	195
  3489     008F  00F4               	movwf	??_Configuration+1
  3490     0090  30CD               	movlw	205
  3491     0091  00F3               	movwf	??_Configuration
  3492     0092                     u2257:
  3493     0092  0BF3               	decfsz	??_Configuration,f
  3494     0093  2892               	goto	u2257
  3495     0094  0BF4               	decfsz	??_Configuration+1,f
  3496     0095  2892               	goto	u2257
  3497     0096                     l1274:
  3498                           
  3499                           ;AtoD_class.c: 60:    Lcd_command(0x0C);
  3500     0096  300C               	movlw	12
  3501     0097  120A  158A  2788  120A  118A  	fcall	_Lcd_command
  3502     009C                     l1276:
  3503                           
  3504                           ;AtoD_class.c: 61:    _delay((unsigned long)((100)*(6000000/4000.0)));
  3505     009C  30C3               	movlw	195
  3506     009D  00F4               	movwf	??_Configuration+1
  3507     009E  30CD               	movlw	205
  3508     009F  00F3               	movwf	??_Configuration
  3509     00A0                     u2267:
  3510     00A0  0BF3               	decfsz	??_Configuration,f
  3511     00A1  28A0               	goto	u2267
  3512     00A2  0BF4               	decfsz	??_Configuration+1,f
  3513     00A3  28A0               	goto	u2267
  3514     00A4                     l48:
  3515     00A4  0008               	return
  3516     00A5                     __end_of_Configuration:
  3517                           
  3518                           	psect	text11
  3519     0F88                     __ptext11:	
  3520 ;; *************** function _Lcd_command *****************
  3521 ;; Defined at:
  3522 ;;		line 64 in file "AtoD_class.c"
  3523 ;; Parameters:    Size  Location     Type
  3524 ;;  cmd             1    wreg     unsigned char 
  3525 ;; Auto vars:     Size  Location     Type
  3526 ;;  cmd             1    2[COMMON] unsigned char 
  3527 ;; Return value:  Size  Location     Type
  3528 ;;                  1    wreg      void 
  3529 ;; Registers used:
  3530 ;;		wreg, status,2, status,0, btemp+1
  3531 ;; Tracked objects:
  3532 ;;		On entry : 0/0
  3533 ;;		On exit  : 0/0
  3534 ;;		Unchanged: 0/0
  3535 ;; Data sizes:     COMMON   BANK0   BANK1   BANK3   BANK2
  3536 ;;      Params:         0       0       0       0       0
  3537 ;;      Locals:         1       0       0       0       0
  3538 ;;      Temps:          2       0       0       0       0
  3539 ;;      Totals:         3       0       0       0       0
  3540 ;;Total ram usage:        3 bytes
  3541 ;; Hardware stack levels used: 1
  3542 ;; This function calls:
  3543 ;;		Nothing
  3544 ;; This function is called by:
  3545 ;;		_main
  3546 ;;		_Configuration
  3547 ;; This function uses a non-reentrant model
  3548 ;;
  3549                           
  3550     0F88                     _Lcd_command:	
  3551                           ;psect for function _Lcd_command
  3552                           
  3553                           
  3554                           ;incstack = 0
  3555                           ; Regs used in _Lcd_command: [wreg+status,2+status,0+btemp+1]
  3556                           ;Lcd_command@cmd stored from wreg
  3557     0F88  00F2               	movwf	Lcd_command@cmd
  3558     0F89                     l1174:
  3559                           
  3560                           ;AtoD_class.c: 66:     PORTC &=~0x08;
  3561     0F89  30F7               	movlw	247
  3562     0F8A  00FF               	movwf	btemp+1
  3563     0F8B  087F               	movf	btemp+1,w
  3564     0F8C  1283               	bcf	3,5	;RP0=0, select bank0
  3565     0F8D  1303               	bcf	3,6	;RP1=0, select bank0
  3566     0F8E  0587               	andwf	7,f	;volatile
  3567     0F8F                     l1176:
  3568                           
  3569                           ;AtoD_class.c: 67:     PORTD=cmd;
  3570     0F8F  0872               	movf	Lcd_command@cmd,w
  3571     0F90  0088               	movwf	8	;volatile
  3572     0F91                     l1178:
  3573                           
  3574                           ;AtoD_class.c: 68:     PORTC |=0x01;
  3575     0F91  1407               	bsf	7,0	;volatile
  3576     0F92                     l1180:
  3577                           
  3578                           ;AtoD_class.c: 69:     PORTC &=~0x01;
  3579     0F92  30FE               	movlw	254
  3580     0F93  00FF               	movwf	btemp+1
  3581     0F94  087F               	movf	btemp+1,w
  3582     0F95  0587               	andwf	7,f	;volatile
  3583                           
  3584                           ;AtoD_class.c: 70:     _delay((unsigned long)((100)*(6000000/4000.0)));
  3585     0F96  30C3               	movlw	195
  3586     0F97  00F1               	movwf	??_Lcd_command+1
  3587     0F98  30CD               	movlw	205
  3588     0F99  00F0               	movwf	??_Lcd_command
  3589     0F9A                     u2277:
  3590     0F9A  0BF0               	decfsz	??_Lcd_command,f
  3591     0F9B  2F9A               	goto	u2277
  3592     0F9C  0BF1               	decfsz	??_Lcd_command+1,f
  3593     0F9D  2F9A               	goto	u2277
  3594     0F9E                     l51:
  3595     0F9E  0008               	return
  3596     0F9F                     __end_of_Lcd_command:
  3597     007E                     btemp	set	126	;btemp
  3598     007E                     wtemp0	set	126
  3599                           
  3600                           	psect	config
  3601                           
  3602                           ;Config register CONFIG @ 0x2007
  3603                           ;	Oscillator Selection bits
  3604                           ;	FOSC = EXTRC, RC oscillator
  3605                           ;	Watchdog Timer Enable bit
  3606                           ;	WDTE = OFF, WDT disabled
  3607                           ;	Power-up Timer Enable bit
  3608                           ;	PWRTE = OFF, PWRT disabled
  3609                           ;	Brown-out Reset Enable bit
  3610                           ;	BOREN = OFF, BOR disabled
  3611                           ;	Low-Voltage (Single-Supply) In-Circuit Serial Programming Enable bit
  3612                           ;	LVP = OFF, RB3 is digital I/O, HV on MCLR must be used for programming
  3613                           ;	Data EEPROM Memory Code Protection bit
  3614                           ;	CPD = OFF, Data EEPROM code protection off
  3615                           ;	Flash Program Memory Write Enable bits
  3616                           ;	WRT = OFF, Write protection off; all program memory may be written to by EECON control
  3617                           ;	In-Circuit Debugger Mode bit
  3618                           ;	DEBUG = 0x1, unprogrammed default
  3619                           ;	Flash Program Memory Code Protection bit
  3620                           ;	CP = OFF, Code protection off
  3621     2007                     	org	8199
  3622     2007  3F3B               	dw	16187

Data Sizes:
    Strings     0
    Constant    0
    Data        0
    BSS         14
    Persistent  0
    Stack       0

Auto Spaces:
    Space          Size  Autos    Used
    COMMON           14     14      14
    BANK0            80     64      78
    BANK1            80      0       0
    BANK3            96      0       0
    BANK2            96      0       0

Pointer List with Targets:

    None.

Critical Paths under _main in COMMON

    _main->___xxtofl
    ___fltol->___xxtofl
    ___flmul->___xxtofl
    ___fldiv->___xxtofl
    _Lcd_printing->___lwdiv
    _Configuration->_Lcd_command

Critical Paths under _main in BANK0

    _main->___fltol
    ___fltol->___flmul
    ___flmul->___fldiv

Critical Paths under _main in BANK1

    None.

Critical Paths under _main in BANK3

    None.

Critical Paths under _main in BANK2

    None.

Call Graph Tables:

 ---------------------------------------------------------------------------------
 (Depth) Function   	        Calls       Base Space   Used Autos Params    Refs
 ---------------------------------------------------------------------------------
 (0) _main                                                 2     2      0    5389
                                             62 BANK0      2     2      0
                      _Configuration
                        _Lcd_command
                       _Lcd_printing
                            ___fldiv
                            ___flmul
                            ___fltol
                           ___xxtofl
 ---------------------------------------------------------------------------------
 (1) ___xxtofl                                            14    10      4     398
                                              0 COMMON    14    10      4
 ---------------------------------------------------------------------------------
 (1) ___fltol                                             10     6      4     305
                                             52 BANK0     10     6      4
                            ___fldiv (ARG)
                            ___flmul (ARG)
                           ___xxtofl (ARG)
 ---------------------------------------------------------------------------------
 (1) ___flmul                                             26    18      8    2417
                                             26 BANK0     26    18      8
                          __Umul8_16
                            ___fldiv (ARG)
                           ___xxtofl (ARG)
 ---------------------------------------------------------------------------------
 (2) __Umul8_16                                            9     7      2     799
                                              0 COMMON     9     7      2
 ---------------------------------------------------------------------------------
 (1) ___fldiv                                             26    18      8    1273
                                              0 BANK0     26    18      8
                           ___xxtofl (ARG)
 ---------------------------------------------------------------------------------
 (1) _Lcd_printing                                        13    11      2     952
                                              7 COMMON     3     1      2
                                              0 BANK0     10    10      0
                        _Lcd_display
                            ___lwdiv
                            ___lwmod
 ---------------------------------------------------------------------------------
 (2) ___lwmod                                              5     1      4     311
                                              0 COMMON     5     1      4
 ---------------------------------------------------------------------------------
 (2) ___lwdiv                                              7     3      4     314
                                              0 COMMON     7     3      4
 ---------------------------------------------------------------------------------
 (2) _Lcd_display                                          3     3      0      22
                                              0 COMMON     3     3      0
 ---------------------------------------------------------------------------------
 (1) _Configuration                                        2     2      0      22
                                              3 COMMON     2     2      0
                        _Lcd_command
 ---------------------------------------------------------------------------------
 (1) _Lcd_command                                          3     3      0      22
                                              0 COMMON     3     3      0
 ---------------------------------------------------------------------------------
 Estimated maximum stack depth 2
 ---------------------------------------------------------------------------------

 Call Graph Graphs:

 _main (ROOT)
   _Configuration
     _Lcd_command
   _Lcd_command
   _Lcd_printing
     _Lcd_display
     ___lwdiv
     ___lwmod
   ___fldiv
     ___xxtofl (ARG)
   ___flmul
     __Umul8_16
     ___fldiv (ARG)
     ___xxtofl (ARG)
   ___fltol
     ___fldiv (ARG)
     ___flmul (ARG)
     ___xxtofl (ARG)
   ___xxtofl

 Address spaces:
Name               Size   Autos  Total    Cost      Usage
BITCOMMON            E      0       0       0        0.0%
EEDATA             100      0       0       0        0.0%
NULL                 0      0       0       0        0.0%
CODE                 0      0       0       0        0.0%
COMMON               E      E       E       1      100.0%
BITSFR0              0      0       0       1        0.0%
SFR0                 0      0       0       1        0.0%
BITSFR1              0      0       0       2        0.0%
SFR1                 0      0       0       2        0.0%
STACK                0      0       0       2        0.0%
ABS                  0      0      5C       3        0.0%
BITBANK0            50      0       0       4        0.0%
BITSFR3              0      0       0       4        0.0%
SFR3                 0      0       0       4        0.0%
BANK0               50     40      4E       5       97.5%
BITSFR2              0      0       0       5        0.0%
SFR2                 0      0       0       5        0.0%
BITBANK1            50      0       0       6        0.0%
BANK1               50      0       0       7        0.0%
BITBANK3            60      0       0       8        0.0%
BANK3               60      0       0       9        0.0%
BITBANK2            60      0       0      10        0.0%
BANK2               60      0       0      11        0.0%
DATA                 0      0      5C      12        0.0%


Microchip Technology PIC Macro Assembler V2.41 build 20230208172133 
Symbol Table                                                                                   Wed Sep 27 20:40:23 2023

        Lcd_display@data 0072             ___fldiv@aexp 0039             ___fldiv@bexp 0038  
           ___fldiv@sign 0031                       l40 0198                       l51 0F9E  
                     l54 0F87                       l39 018F                       l48 00A4  
                     l64 0111      __Umul8_16@word_mpld 0076                      l501 04A6  
                    l422 0057                      l343 0174                      l432 0FFF  
                    l336 0189                      l521 0492                      l346 0189  
                    l515 0420                      l560 0FC5                      l545 075B  
                    l539 07EB                      l558 0FB3                      l583 0242  
                    l585 02D7                      l499 032E                      l596 02A1  
                    l597 02AD                      fsr0 0004                      indf 0000  
           ___flmul@aexp 004C             ___flmul@bexp 004D             ___flmul@sign 0047  
           ___flmul@temp 0052             ___flmul@prod 004E             ___fltol@exp1 005D  
                   l1200 0026                     l1210 0046                     l1202 002A  
                   l1212 004D                     l1204 002E                     l1220 0FCC  
                   l1300 0107                     l1206 003F                     l1214 0053  
                   l1230 0FE8                     l1222 0FCF                     l1302 010B  
                   l1310 0126                     l1208 0045                     l1232 0FEE  
                   l1224 0FD6                     l1400 0377                     l1240 0FA0  
                   l1320 0148                     l1312 0139                     l1304 0112  
                   l1234 0FF5                     l1226 0FDA                     l1218 0FC6  
                   l1410 03A0                     l1402 037F                     l1250 0FC1  
                   l1242 0FA2                     l1330 0162                     l1314 013A  
                   l1306 011D                     l1180 0F92                     l1260 0068  
                   l1228 0FDE                     l1236 0FFB                     l1420 03C1  
                   l1412 03A4                     l1404 0387                     l1244 0FA9  
                   l1500 04BF                     l1340 017E                     l1316 0142  
                   l1174 0F89                     l1270 0088                     l1262 006C  
                   l1254 0058                     l1190 0F7F                     l1182 0F75  
                   l1430 03E3                     l1422 03CF                     l1414 03A5  
                   l1406 0389                     l1350 02E6                     l1342 02D8  
                   l1246 0FAD                     l1510 04DA                     l1502 04C7  
                   l1326 0150                     l1318 0144                     l1176 0F8F  
                   l1272 008E                     l1264 0072                     l1256 0060  
                   l1184 0F78                     l1192 0014                     l1280 00AE  
                   l1432 03EC                     l1440 0400                     l1408 038E  
                   l1416 03AE                     l1424 03D3                     l1352 02EB  
                   l1360 02FB                     l1344 02DD                     l1248 0FBC  
                   l1600 0773                     l1520 04F1                     l1512 04DE  
                   l1504 04C9                     l1336 0169                     l1328 0159  
                   l1178 0F91                     l1274 0096                     l1266 007A  
                   l1258 0064                     l1186 0F7A                     l1194 0016  
                   l1290 00EC                     l1282 00B3                     l1442 0404  
                   l1434 03F0                     l1426 03D9                     l1418 03C0  
                   l1370 0311                     l1362 0303                     l1354 02F0  
                   l1346 02E1                     l1610 07AE                     l1602 0777  
                   l1522 04F3                     l1514 04DF                     l1506 04D1  
                   l1338 0179                     l1276 009C                     l1268 0080  
                   l1188 0F7B                     l1196 001C                     l1284 00CD  
                   l1460 0455                     l1452 0425                     l1444 0405  
                   l1436 03F1                     l1428 03E1                     l1372 0316  
                   l1380 0326                     l1364 0308                     l1356 02F8  
                   l1348 02E5                     l1620 07D9                     l1612 07BD  
                   l1604 0790                     l1540 0560                     l1532 050E  
                   l1524 04FB                     l1516 04E4                     l1508 04D6  
                   l1198 001F                     l1286 00D5                     l1278 00A5  
                   l1470 0489                     l1454 042A                     l1462 045B  
                   l1446 0409                     l1438 03FA                     l1382 0336  
                   l1390 034F                     l1374 031B                     l1366 030C  
                   l1358 02F9                     l1622 07DA                     l1614 07C7  
                   l1606 0796                     l1550 05D9                     l1542 058A  
                   l1534 051C                     l1526 0500                     l1518 04E9  
                   l1630 0221                     l1296 00F2                     l1288 00E6  
                   l1480 04A0                     l1472 0491                     l1464 0468  
                   l1456 0438                     l1448 041D                     l1392 0354  
                   l1384 0342                     l1376 0323                     l1368 0310  
                   l1616 07C9                     l1624 07DF                     l1608 07A3  
                   l1560 0655                     l1552 05F6                     l1544 05A6  
                   l1536 0529                     l1528 0505                     l1632 0226  
                   l1298 00FF                     l1474 0496                     l1466 0476  
                   l1458 043C                     l1386 0346                     l1378 0324  
                   l1626 07E3                     l1618 07D5                     l1570 0707  
                   l1562 0680                     l1554 0604                     l1546 05C2  
                   l1538 0544                     l1490 04AC                     l1650 026A  
                   l1642 0253                     l1634 022A                     l1476 049A  
                   l1468 0485                     l1396 035D                     l1580 072C  
                   l1572 0710                     l1564 068E                     l1556 0621  
                   l1548 05CB                     l1492 04B0                     l1660 0297  
                   l1652 026E                     l1644 0256                     l1636 023A  
                   l1478 049C                     l1398 036F                     l1590 0744  
                   l1582 0735                     l1574 071E                     l1566 06B9  
                   l1558 0638                     l1494 04B4                     l1670 02CA  
                   l1662 029B                     l1654 027C                     l1646 025A  
                   l1638 024A                     l1592 0758                     l1576 0727  
                   l1584 073B                     l1568 06DF                     l1496 04B5  
                   l1488 04A7                     l1672 02CE                     l1664 02A5  
                   l1656 0285                     l1648 0263                     l1680 0195  
                   l1586 073F                     l1578 072B                     l1498 04BA  
                   l1674 02CF                     l1666 02AF                     l1658 028C  
                   l1690 0211                     l1682 019C                     l1596 0760  
                   l1588 0740                     l1668 02C5                     l1684 01AE  
                   l1598 0765                     l1686 01B9                     l1678 018A  
                   l1688 0208                     u1110 001C                     u1111 001B  
                   u1200 0FDE                     u2000 0765                     u1201 0FDD  
                   u2001 0764                     u1130 002E                     u1210 0FE8  
                   u2010 0777                     u1131 002D                     u1211 0FE7  
                   u2011 0776                     u2020 0786                     u1300 011D  
                   u2100 0269                     u1125 0020                     u1301 011C  
                   u2101 0268                     u1150 003F                     u1230 0FFB  
                   u2030 07A3                     u1310 0134                     u1151 003E  
                   u1231 0FFA                     u1215 0FE4                     u2031 07A2  
                   u1400 02E5                     u1240 0FAD                     u2040 07BD  
                   u1320 0148                     u2120 028B                     u2200 019C  
                   u1145 002F                     u1225 0FEF                     u1401 02E4  
                   u1241 0FAC                     u2041 07BC                     u2025 0781  
                   u1321 0147                     u2121 028A                     u2201 019B  
                   u1170 0053                     u1410 02EB                     u2050 07D9  
                   u1330 014F                     u1171 0052                     u1155 003B  
                   u1411 02EA                     u2051 07D8                     u2035 079F  
                   u1331 014E                     u1315 012F                     u2115 027D  
                   u1180 0FCC                     u1420 02F0                     u1260 0FC1  
                   u2140 029B                     u2060 0226                     u1165 0047  
                   u1181 0FCB                     u1421 02EF                     u1261 0FC0  
                   u2045 07B9                     u2141 029A                     u2061 0225  
                   u1270 00A9                     u1510 03A4                     u1430 0310  
                   u1350 0161                     u2150 02A1                     u2070 022A  
                   u1511 03A3                     u1431 030F                     u1255 0FB4  
                   u1351 0160                     u2151 02A0                     u2135 0290  
                   u2071 0229                     u1280 00EC                     u1600 0409  
                   u1440 0316                     u1360 0168                     u2160 02A5  
                   u2080 024A                     u1281 00EB                     u1601 0408  
                   u1505 0399                     u1441 0315                     u1361 0167  
                   u1345 0151                     u2161 02A4                     u2081 0249  
                   u2217 0217                     u1290 010B                     u1610 041D  
                   u1530 03C0                     u1450 031B                     u2170 02BA  
                   u2227 0F83                     u1195 0FD0                     u1291 010A  
                   u1611 041C                     u1531 03BF                     u1451 031A  
                   u1620 0424                     u1540 03D9                     u1460 0336  
                   u1700 04BA                     u1380 0179                     u2180 02CA  
                   u2237 0076                     u1621 0423                     u1541 03D8  
                   u1525 03A7                     u1461 0335                     u1701 04B9  
                   u1381 0178                     u2181 02C9                     u1630 042A  
                   u1550 03E1                     u1470 0354                     u1710 04BF  
                   u1390 017E                     u2190 02CE                     u2247 0084  
                   u1631 0429                     u1551 03E0                     u1535 03BC  
                   u1471 0353                     u1711 04BE                     u1391 017D  
                   u1375 016B                     u2191 02CD                     u2175 02B5  
                   u2095 025B                     u1640 043C                     u1480 038E  
                   u1720 04DE                     u2257 0092                     u1641 043B  
                   u1481 038D                     u1801 05B4                     u1721 04DD  
                   u1650 044B                     u1570 03F0                     u1802 05BB  
                   u1730 04E4                     u2267 00A0                     u1571 03EF  
                   u1803 05C2                     u1731 04E3                     u1660 0468  
                   u1900 06ED                     u1740 04E9                     u2277 0F9A  
                   u1661 0467                     u1565 03E5                     u1821 05E8  
                   u1741 04E8                     u1670 0485                     u1590 0404  
                   u1822 05EF                     u1750 0500                     u1671 0484  
                   u1655 0446                     u1591 0403                     u1495 0390  
                   u1911 06F9                     u1831 0613                     u1823 05F6  
                   u1815 05C4                     u1751 04FF                     u1680 049A  
                   u1912 0700                     u1832 061A                     u1760 0505  
                   u1681 0499                     u1665 0464                     u1585 03F3  
                   u1913 0707                     u1905 06E8                     u1833 0621  
                   u1761 0504                     u1690 04B4                     u1675 0481  
                   u1851 0647                     u1771 0552                     u1691 04B3  
                   u1940 072B                     u1852 064E                     u1772 0559  
                   u1941 072A                     u1925 0709                     u1861 0672  
                   u1853 0655                     u1845 0623                     u1781 056E  
                   u1773 0560                     u1862 0679                     u1782 0575  
                   u1935 0720                     u1871 069D                     u1863 0680  
                   u1791 0598                     u1783 057C                     u1960 073F  
                   u1880 06C5                     u1872 06A4                     u1792 059F  
                   u1961 073E                     u1873 06AB                     u1793 05A6  
                   u1970 0744                     u1971 0743                     u1955 072E  
                   u1891 06D1                     u1980 0758                     u1892 06D8  
                   u1981 0757                     u1893 06DF                     u1885 06C0  
                   u1990 075F                     u1991 075E                     _main 018A  
                   btemp 007E                     start 0000          ___fldiv@new_exp 0032  
    __end_of_Lcd_command 0F9F      __end_of_Lcd_display 0F88            ___fltol@sign1 005C  
                  ?_main 0070          __end_of___fldiv 04A7          __end_of___flmul 07EC  
        __end_of___fltol 018A          __end_of___lwdiv 0058          __end_of___lwmod 1000  
                  _PORTC 0007                    _PORTD 0008                    _TRISA 0085  
                  _TRISC 0087                    _TRISD 0088                    _value 0068  
                  status 0003                    wtemp0 007E          __initialization 07EC  
           __end_of_main 0220                   ??_main 005E     __end_of_Lcd_printing 0112  
                 _ADCON0 001F                   _ADCON1 009F                   _ADRESH 001E  
                 _ADRESL 009E              _Lcd_command 0F88              _Lcd_display 0F74  
       __end_of___xxtofl 02D8                ??___fldiv 0028                ??___flmul 0042  
              ??___fltol 0058                ??___lwdiv 0074                ??___lwmod 0074  
                 _result 0066             ___xxtofl@arg 007A             ___xxtofl@exp 0079  
           ___xxtofl@val 0070  __end_of__initialization 07FC               ___fltol@f1 0054  
         __pcstackCOMMON 0070               __pbssBANK0 0060    __end_of_Configuration 00A5  
      __end_of__Umul8_16 0FC6               __pmaintext 018A                ?___xxtofl 0070  
           _Lcd_printing 00A5                  ___fldiv 02D8                  ___flmul 04A7  
                ___fltol 0112                  ___lwdiv 0014                  ___lwmod 0FC6  
                __ptext1 0220                  __ptext2 0112                  __ptext3 04A7  
                __ptext4 0F9F                  __ptext5 02D8                  __ptext6 00A5  
                __ptext7 0FC6                  __ptext8 0014                  __ptext9 0F74  
             ??___xxtofl 0074     end_of_initialization 07FC             ?_Lcd_command 0070  
           ?_Lcd_display 0070           Lcd_command@cmd 0072            ___xxtofl@sign 0078  
            ___fldiv@grs 0034              ___fldiv@rem 002D              ___flmul@grs 0048  
    start_initialization 07EC                __Umul8_16 0F9F                ___fldiv@a 0020  
              ___fldiv@b 0024                ___flmul@a 003E                ___flmul@b 003A  
              ___latbits 0002            __pcstackBANK0 0020         ___lwdiv@dividend 0072  
               ?___fldiv 0020                 ?___flmul 003A                 ?___fltol 0054  
             ?__Umul8_16 0070                 ?___lwdiv 0070                 ?___lwmod 0070  
       ___lwdiv@quotient 0074                _value_lsb 006A                _value_msb 006C  
          _Configuration 0058              ??__Umul8_16 0072                 ___xxtofl 0220  
        ___lwdiv@divisor 0070          ___lwdiv@counter 0076                 __ptext10 0058  
               __ptext11 0F88           ?_Configuration 0070            Lcd_printing@i 0028  
       ___lwmod@dividend 0072            ?_Lcd_printing 0077   __Umul8_16@multiplicand 0070  
        ___lwmod@divisor 0070          ___lwmod@counter 0074          ??_Configuration 0073  
       Lcd_printing@F897 0060            ??_Lcd_command 0070            ??_Lcd_display 0070  
      Lcd_printing@space 0020        Lcd_printing@value 0077     __Umul8_16@multiplier 0078  
       Lcd_printing@temp 0026           ??_Lcd_printing 0079        __Umul8_16@product 0074  
