

Microchip MPLAB XC8 Assembler V2.41 build 20230208172133 
                                                                                               Wed Sep 27 21:00:53 2023

Microchip MPLAB XC8 C Compiler v2.41 (Free license) build 20230208172133 Og1 
     1                           	processor	16F877A
     2                           	pagewidth 120
     3                           	opt	flic
     4                           	psect	idataBANK0,global,class=CODE,delta=2,noexec
     5                           	psect	cinit,global,class=CODE,merge=1,delta=2
     6                           	psect	bssBANK0,global,class=BANK0,space=1,delta=1,noexec
     7                           	psect	dataBANK0,global,class=BANK0,space=1,delta=1,noexec
     8                           	psect	cstackCOMMON,global,class=COMMON,space=1,delta=1,noexec
     9                           	psect	cstackBANK0,global,class=BANK0,space=1,delta=1,noexec
    10                           	psect	maintext,global,class=CODE,split=1,delta=2
    11                           	psect	text1,local,class=CODE,merge=1,delta=2,group=1
    12                           	psect	text2,local,class=CODE,merge=1,delta=2,group=1
    13                           	psect	text3,local,class=CODE,merge=1,delta=2,group=1
    14                           	psect	text4,local,class=CODE,merge=1,delta=2,group=1
    15                           	psect	text5,local,class=CODE,merge=1,delta=2,group=1
    16                           	psect	text6,local,class=CODE,merge=1,delta=2
    17                           	psect	text7,local,class=CODE,merge=1,delta=2,group=1
    18                           	psect	text8,local,class=CODE,merge=1,delta=2,group=1
    19                           	psect	text9,local,class=CODE,merge=1,delta=2
    20                           	psect	text10,local,class=CODE,merge=1,delta=2
    21                           	psect	text11,local,class=CODE,merge=1,delta=2
    22                           	psect	config,global,abs,ovrld,class=CONFIG,space=4,delta=2,noexec
    23                           	dabs	1,0x7E,2
    24     0000                     
    25                           ; Generated 22/03/2023 GMT
    26                           ; 
    27                           ; Copyright © 2023, Microchip Technology Inc. and its subsidiaries ("Microchip")
    28                           ; All rights reserved.
    29                           ; 
    30                           ; This software is developed by Microchip Technology Inc. and its subsidiaries ("Microch
      +                          ip").
    31                           ; 
    32                           ; Redistribution and use in source and binary forms, with or without modification, are
    33                           ; permitted provided that the following conditions are met:
    34                           ; 
    35                           ;     1. Redistributions of source code must retain the above copyright notice, this lis
      +                          t of
    36                           ;        conditions and the following disclaimer.
    37                           ; 
    38                           ;     2. Redistributions in binary form must reproduce the above copyright notice, this 
      +                          list
    39                           ;        of conditions and the following disclaimer in the documentation and/or other
    40                           ;        materials provided with the distribution. Publication is not required when
    41                           ;        this file is used in an embedded application.
    42                           ; 
    43                           ;     3. Microchip's name may not be used to endorse or promote products derived from th
      +                          is
    44                           ;        software without specific prior written permission.
    45                           ; 
    46                           ; THIS SOFTWARE IS PROVIDED BY MICROCHIP "AS IS" AND ANY EXPRESS OR IMPLIED WARRANTIES,
    47                           ; INCLUDING, BUT NOT LIMITED TO, THE IMPLIED WARRANTIES OF MERCHANTABILITY AND FITNESS F
      +                          OR
    48                           ; PURPOSE ARE DISCLAIMED.  IN NO EVENT SHALL MICROCHIP BE LIABLE FOR ANY DIRECT, INDIREC
      +                          T,
    49                           ; INCIDENTAL, SPECIAL, EXEMPLARY, OR CONSEQUENTIAL DAMAGES (INCLUDING BUT NOT LIMITED TO
    50                           ; PROCUREMENT OF SUBSTITUTE GOODS OR SERVICES; LOSS OF USE, DATA OR PROFITS; OR BUSINESS
    51                           ; INTERRUPTION) HOWSOEVER CAUSED AND ON ANY THEORY OF LIABILITY, WHETHER IN CONTRACT, ST
      +                          RICT
    52                           ; LIABILITY, OR TORT (INCLUDING NEGLIGENCE OR OTHERWISE) ARISING IN ANY WAY OUT OF THE U
      +                          SE OF
    53                           ; THIS SOFTWARE, EVEN IF ADVISED OF THE POSSIBILITY OF SUCH DAMAGE.
    54                           ; 
    55                           ; 
    56                           ; Code-generator required, PIC16F877A Definitions
    57                           ; 
    58                           ; SFR Addresses
    59     0000                     	;# 
    60     0001                     	;# 
    61     0002                     	;# 
    62     0003                     	;# 
    63     0004                     	;# 
    64     0005                     	;# 
    65     0006                     	;# 
    66     0007                     	;# 
    67     0008                     	;# 
    68     0009                     	;# 
    69     000A                     	;# 
    70     000B                     	;# 
    71     000C                     	;# 
    72     000D                     	;# 
    73     000E                     	;# 
    74     000E                     	;# 
    75     000F                     	;# 
    76     0010                     	;# 
    77     0011                     	;# 
    78     0012                     	;# 
    79     0013                     	;# 
    80     0014                     	;# 
    81     0015                     	;# 
    82     0015                     	;# 
    83     0016                     	;# 
    84     0017                     	;# 
    85     0018                     	;# 
    86     0019                     	;# 
    87     001A                     	;# 
    88     001B                     	;# 
    89     001B                     	;# 
    90     001C                     	;# 
    91     001D                     	;# 
    92     001E                     	;# 
    93     001F                     	;# 
    94     0081                     	;# 
    95     0085                     	;# 
    96     0086                     	;# 
    97     0087                     	;# 
    98     0088                     	;# 
    99     0089                     	;# 
   100     008C                     	;# 
   101     008D                     	;# 
   102     008E                     	;# 
   103     0091                     	;# 
   104     0092                     	;# 
   105     0093                     	;# 
   106     0094                     	;# 
   107     0098                     	;# 
   108     0099                     	;# 
   109     009C                     	;# 
   110     009D                     	;# 
   111     009E                     	;# 
   112     009F                     	;# 
   113     010C                     	;# 
   114     010D                     	;# 
   115     010E                     	;# 
   116     010F                     	;# 
   117     018C                     	;# 
   118     018D                     	;# 
   119     0000                     	;# 
   120     0001                     	;# 
   121     0002                     	;# 
   122     0003                     	;# 
   123     0004                     	;# 
   124     0005                     	;# 
   125     0006                     	;# 
   126     0007                     	;# 
   127     0008                     	;# 
   128     0009                     	;# 
   129     000A                     	;# 
   130     000B                     	;# 
   131     000C                     	;# 
   132     000D                     	;# 
   133     000E                     	;# 
   134     000E                     	;# 
   135     000F                     	;# 
   136     0010                     	;# 
   137     0011                     	;# 
   138     0012                     	;# 
   139     0013                     	;# 
   140     0014                     	;# 
   141     0015                     	;# 
   142     0015                     	;# 
   143     0016                     	;# 
   144     0017                     	;# 
   145     0018                     	;# 
   146     0019                     	;# 
   147     001A                     	;# 
   148     001B                     	;# 
   149     001B                     	;# 
   150     001C                     	;# 
   151     001D                     	;# 
   152     001E                     	;# 
   153     001F                     	;# 
   154     0081                     	;# 
   155     0085                     	;# 
   156     0086                     	;# 
   157     0087                     	;# 
   158     0088                     	;# 
   159     0089                     	;# 
   160     008C                     	;# 
   161     008D                     	;# 
   162     008E                     	;# 
   163     0091                     	;# 
   164     0092                     	;# 
   165     0093                     	;# 
   166     0094                     	;# 
   167     0098                     	;# 
   168     0099                     	;# 
   169     009C                     	;# 
   170     009D                     	;# 
   171     009E                     	;# 
   172     009F                     	;# 
   173     010C                     	;# 
   174     010D                     	;# 
   175     010E                     	;# 
   176     010F                     	;# 
   177     018C                     	;# 
   178     018D                     	;# 
   179                           
   180                           	psect	idataBANK0
   181     0009                     __pidataBANK0:
   182                           
   183                           ;initializer for Lcd_printing@F896
   184     0009  3430               	retlw	48
   185     000A  3430               	retlw	48
   186     000B  3430               	retlw	48
   187     0008                     _PORTD	set	8
   188     0007                     _PORTC	set	7
   189     001E                     _ADRESH	set	30
   190     001F                     _ADCON0	set	31
   191     009F                     _ADCON1	set	159
   192     0088                     _TRISD	set	136
   193     0087                     _TRISC	set	135
   194     0085                     _TRISA	set	133
   195     009E                     _ADRESL	set	158
   196                           
   197                           	psect	cinit
   198     07E4                     start_initialization:	
   199                           ; #config settings
   200                           
   201     07E4                     __initialization:
   202                           
   203                           ; Initialize objects allocated to BANK0
   204     07E4  120A  118A  2009  120A  118A  	fcall	__pidataBANK0	;fetch initializer
   205     07E9  00E8               	movwf	__pdataBANK0& (0+127)
   206     07EA  120A  118A  200A  120A  118A  	fcall	__pidataBANK0+1	;fetch initializer
   207     07EF  00E9               	movwf	(__pdataBANK0+1)& (0+127)
   208     07F0  120A  118A  200B  120A  118A  	fcall	__pidataBANK0+2	;fetch initializer
   209     07F5  00EA               	movwf	(__pdataBANK0+2)& (0+127)
   210                           
   211                           ; Clear objects allocated to BANK0
   212     07F6  01E2               	clrf	__pbssBANK0& (0+127)
   213     07F7  01E3               	clrf	(__pbssBANK0+1)& (0+127)
   214     07F8  01E4               	clrf	(__pbssBANK0+2)& (0+127)
   215     07F9  01E5               	clrf	(__pbssBANK0+3)& (0+127)
   216     07FA  01E6               	clrf	(__pbssBANK0+4)& (0+127)
   217     07FB  01E7               	clrf	(__pbssBANK0+5)& (0+127)
   218     07FC                     end_of_initialization:	
   219                           ;End of C runtime variable initialization code
   220                           
   221     07FC                     __end_of__initialization:
   222     07FC  0183               	clrf	3
   223     07FD  120A  118A  2970   	ljmp	_main	;jump to C main() function
   224                           
   225                           	psect	bssBANK0
   226     0062                     __pbssBANK0:
   227     0062                     _Result:
   228     0062                     	ds	2
   229     0064                     _Low:
   230     0064                     	ds	2
   231     0066                     _High:
   232     0066                     	ds	2
   233                           
   234                           	psect	dataBANK0
   235     0068                     __pdataBANK0:
   236     0068                     Lcd_printing@F896:
   237     0068                     	ds	3
   238                           
   239                           	psect	cstackCOMMON
   240     0070                     __pcstackCOMMON:
   241     0070                     ?_Configuration:
   242     0070                     ?_Lcd_command:	
   243                           ; 1 bytes @ 0x0
   244                           
   245     0070                     ??_Lcd_command:	
   246                           ; 1 bytes @ 0x0
   247                           
   248     0070                     ?_Lcd_displaydata:	
   249                           ; 1 bytes @ 0x0
   250                           
   251     0070                     ??_Lcd_displaydata:	
   252                           ; 1 bytes @ 0x0
   253                           
   254     0070                     ?_main:	
   255                           ; 1 bytes @ 0x0
   256                           
   257     0070                     ?__Umul8_16:	
   258                           ; 1 bytes @ 0x0
   259                           
   260     0070                     ?___lwdiv:	
   261                           ; 2 bytes @ 0x0
   262                           
   263     0070                     ?___lwmod:	
   264                           ; 2 bytes @ 0x0
   265                           
   266     0070                     ?___xxtofl:	
   267                           ; 2 bytes @ 0x0
   268                           
   269     0070                     __Umul8_16@multiplicand:	
   270                           ; 4 bytes @ 0x0
   271                           
   272     0070                     ___lwdiv@divisor:	
   273                           ; 1 bytes @ 0x0
   274                           
   275     0070                     ___lwmod@divisor:	
   276                           ; 2 bytes @ 0x0
   277                           
   278     0070                     ___xxtofl@val:	
   279                           ; 2 bytes @ 0x0
   280                           
   281                           
   282                           ; 4 bytes @ 0x0
   283     0070                     	ds	2
   284     0072                     ??__Umul8_16:
   285     0072                     Lcd_displaydata@data:	
   286                           ; 1 bytes @ 0x2
   287                           
   288     0072                     Lcd_command@cmd:	
   289                           ; 1 bytes @ 0x2
   290                           
   291     0072                     ___lwdiv@dividend:	
   292                           ; 1 bytes @ 0x2
   293                           
   294     0072                     ___lwmod@dividend:	
   295                           ; 2 bytes @ 0x2
   296                           
   297                           
   298                           ; 2 bytes @ 0x2
   299     0072                     	ds	1
   300     0073                     ??_Configuration:
   301                           
   302                           ; 1 bytes @ 0x3
   303     0073                     	ds	1
   304     0074                     ??___lwdiv:
   305     0074                     ??___lwmod:	
   306                           ; 1 bytes @ 0x4
   307                           
   308     0074                     ??___xxtofl:	
   309                           ; 1 bytes @ 0x4
   310                           
   311     0074                     ___lwmod@counter:	
   312                           ; 1 bytes @ 0x4
   313                           
   314     0074                     ___lwdiv@quotient:	
   315                           ; 1 bytes @ 0x4
   316                           
   317     0074                     __Umul8_16@product:	
   318                           ; 2 bytes @ 0x4
   319                           
   320                           
   321                           ; 2 bytes @ 0x4
   322     0074                     	ds	2
   323     0076                     ___lwdiv@counter:
   324     0076                     __Umul8_16@word_mpld:	
   325                           ; 1 bytes @ 0x6
   326                           
   327                           
   328                           ; 2 bytes @ 0x6
   329     0076                     	ds	1
   330     0077                     ?_Lcd_printing:
   331     0077                     Lcd_printing@value:	
   332                           ; 1 bytes @ 0x7
   333                           
   334                           
   335                           ; 2 bytes @ 0x7
   336     0077                     	ds	1
   337     0078                     __Umul8_16@multiplier:
   338     0078                     ___xxtofl@sign:	
   339                           ; 1 bytes @ 0x8
   340                           
   341                           
   342                           ; 1 bytes @ 0x8
   343     0078                     	ds	1
   344     0079                     ??_Lcd_printing:
   345     0079                     ___xxtofl@exp:	
   346                           ; 1 bytes @ 0x9
   347                           
   348                           
   349                           ; 1 bytes @ 0x9
   350     0079                     	ds	1
   351     007A                     ___xxtofl@arg:
   352                           
   353                           ; 4 bytes @ 0xA
   354     007A                     	ds	4
   355                           
   356                           	psect	cstackBANK0
   357     0020                     __pcstackBANK0:
   358     0020                     ?___fldiv:
   359     0020                     Lcd_printing@space:	
   360                           ; 4 bytes @ 0x0
   361                           
   362     0020                     ___fldiv@a:	
   363                           ; 3 bytes @ 0x0
   364                           
   365                           
   366                           ; 4 bytes @ 0x0
   367     0020                     	ds	3
   368     0023                     Lcd_printing@temp:
   369                           
   370                           ; 2 bytes @ 0x3
   371     0023                     	ds	1
   372     0024                     ___fldiv@b:
   373                           
   374                           ; 4 bytes @ 0x4
   375     0024                     	ds	1
   376     0025                     Lcd_printing@i:
   377                           
   378                           ; 2 bytes @ 0x5
   379     0025                     	ds	3
   380     0028                     ??___fldiv:
   381                           
   382                           ; 1 bytes @ 0x8
   383     0028                     	ds	5
   384     002D                     ___fldiv@rem:
   385                           
   386                           ; 4 bytes @ 0xD
   387     002D                     	ds	4
   388     0031                     ___fldiv@sign:
   389                           
   390                           ; 1 bytes @ 0x11
   391     0031                     	ds	1
   392     0032                     ___fldiv@new_exp:
   393                           
   394                           ; 2 bytes @ 0x12
   395     0032                     	ds	2
   396     0034                     ___fldiv@grs:
   397                           
   398                           ; 4 bytes @ 0x14
   399     0034                     	ds	4
   400     0038                     ___fldiv@bexp:
   401                           
   402                           ; 1 bytes @ 0x18
   403     0038                     	ds	1
   404     0039                     ___fldiv@aexp:
   405                           
   406                           ; 1 bytes @ 0x19
   407     0039                     	ds	1
   408     003A                     ?___flmul:
   409     003A                     ___flmul@b:	
   410                           ; 4 bytes @ 0x1A
   411                           
   412                           
   413                           ; 4 bytes @ 0x1A
   414     003A                     	ds	4
   415     003E                     ___flmul@a:
   416                           
   417                           ; 4 bytes @ 0x1E
   418     003E                     	ds	4
   419     0042                     ??___flmul:
   420                           
   421                           ; 1 bytes @ 0x22
   422     0042                     	ds	5
   423     0047                     ___flmul@sign:
   424                           
   425                           ; 1 bytes @ 0x27
   426     0047                     	ds	1
   427     0048                     ___flmul@grs:
   428                           
   429                           ; 4 bytes @ 0x28
   430     0048                     	ds	4
   431     004C                     ___flmul@aexp:
   432                           
   433                           ; 1 bytes @ 0x2C
   434     004C                     	ds	1
   435     004D                     ___flmul@bexp:
   436                           
   437                           ; 1 bytes @ 0x2D
   438     004D                     	ds	1
   439     004E                     ___flmul@prod:
   440                           
   441                           ; 4 bytes @ 0x2E
   442     004E                     	ds	4
   443     0052                     ___flmul@temp:
   444                           
   445                           ; 2 bytes @ 0x32
   446     0052                     	ds	2
   447     0054                     ?___fltol:
   448     0054                     ___fltol@f1:	
   449                           ; 4 bytes @ 0x34
   450                           
   451                           
   452                           ; 4 bytes @ 0x34
   453     0054                     	ds	4
   454     0058                     ??___fltol:
   455                           
   456                           ; 1 bytes @ 0x38
   457     0058                     	ds	4
   458     005C                     ___fltol@sign1:
   459                           
   460                           ; 1 bytes @ 0x3C
   461     005C                     	ds	1
   462     005D                     ___fltol@exp1:
   463                           
   464                           ; 1 bytes @ 0x3D
   465     005D                     	ds	1
   466     005E                     ??_main:
   467                           
   468                           ; 1 bytes @ 0x3E
   469     005E                     	ds	4
   470                           
   471                           	psect	maintext
   472     0170                     __pmaintext:	
   473 ;;
   474 ;;Main: autosize = 0, tempsize = 4, incstack = 0, save=0
   475 ;;
   476 ;; *************** function _main *****************
   477 ;; Defined at:
   478 ;;		line 26 in file "AtoD_100V.c"
   479 ;; Parameters:    Size  Location     Type
   480 ;;		None
   481 ;; Auto vars:     Size  Location     Type
   482 ;;		None
   483 ;; Return value:  Size  Location     Type
   484 ;;                  1    wreg      void 
   485 ;; Registers used:
   486 ;;		wreg, fsr0l, fsr0h, status,2, status,0, btemp+1, pclath, cstack
   487 ;; Tracked objects:
   488 ;;		On entry : B00/0
   489 ;;		On exit  : 0/0
   490 ;;		Unchanged: 0/0
   491 ;; Data sizes:     COMMON   BANK0   BANK1   BANK3   BANK2
   492 ;;      Params:         0       0       0       0       0
   493 ;;      Locals:         0       0       0       0       0
   494 ;;      Temps:          0       4       0       0       0
   495 ;;      Totals:         0       4       0       0       0
   496 ;;Total ram usage:        4 bytes
   497 ;; Hardware stack levels required when called: 2
   498 ;; This function calls:
   499 ;;		_Configuration
   500 ;;		_Lcd_command
   501 ;;		_Lcd_printing
   502 ;;		___fldiv
   503 ;;		___flmul
   504 ;;		___fltol
   505 ;;		___xxtofl
   506 ;; This function is called by:
   507 ;;		Startup code after reset
   508 ;; This function uses a non-reentrant model
   509 ;;
   510                           
   511     0170                     _main:	
   512                           ;psect for function _main
   513                           
   514     0170                     l1666:	
   515                           ;incstack = 0
   516                           ; Regs used in _main: [wreg-fsr0h+status,2+status,0+btemp+1+pclath+cstack]
   517                           
   518                           
   519                           ;AtoD_100V.c: 27:     Configuration();
   520     0170  120A  118A  2046  120A  118A  	fcall	_Configuration
   521     0175                     l39:	
   522                           ;AtoD_100V.c: 29:     while(1){
   523                           
   524                           
   525                           ;AtoD_100V.c: 30:         Lcd_command(0x80);
   526     0175  3080               	movlw	128
   527     0176  120A  158A  277E  120A  118A  	fcall	_Lcd_command
   528     017B                     l1668:
   529                           
   530                           ;AtoD_100V.c: 31:         ADCON0|=0x04;
   531     017B  1283               	bcf	3,5	;RP0=0, select bank0
   532     017C  1303               	bcf	3,6	;RP1=0, select bank0
   533     017D  151F               	bsf	31,2	;volatile
   534     017E                     l40:	
   535                           ;AtoD_100V.c: 32:         while(ADCON0&0x04);
   536                           
   537     017E  191F               	btfsc	31,2	;volatile
   538     017F  2981               	goto	u2191
   539     0180  2982               	goto	u2190
   540     0181                     u2191:
   541     0181  297E               	goto	l40
   542     0182                     u2190:
   543     0182                     l1670:
   544                           
   545                           ;AtoD_100V.c: 33:         High=ADRESH;
   546     0182  081E               	movf	30,w	;volatile
   547     0183  00DE               	movwf	??_main
   548     0184  01DF               	clrf	??_main+1
   549     0185  085E               	movf	??_main,w
   550     0186  00E6               	movwf	_High
   551     0187  085F               	movf	??_main+1,w
   552     0188  00E7               	movwf	_High+1
   553                           
   554                           ;AtoD_100V.c: 34:         Low=ADRESL;
   555     0189  1683               	bsf	3,5	;RP0=1, select bank1
   556     018A  1303               	bcf	3,6	;RP1=0, select bank1
   557     018B  081E               	movf	30,w	;volatile
   558     018C  1283               	bcf	3,5	;RP0=0, select bank0
   559     018D  1303               	bcf	3,6	;RP1=0, select bank0
   560     018E  00DE               	movwf	??_main
   561     018F  01DF               	clrf	??_main+1
   562     0190  085E               	movf	??_main,w
   563     0191  00E4               	movwf	_Low
   564     0192  085F               	movf	??_main+1,w
   565     0193  00E5               	movwf	_Low+1
   566     0194                     l1672:
   567                           
   568                           ;AtoD_100V.c: 35:         Result=(High<<2)+ (Low>>6);
   569     0194  0865               	movf	_Low+1,w
   570     0195  00DF               	movwf	??_main+1
   571     0196  0864               	movf	_Low,w
   572     0197  00DE               	movwf	??_main
   573     0198  3006               	movlw	6
   574     0199                     u2205:
   575     0199  1003               	clrc
   576     019A  0CDF               	rrf	??_main+1,f
   577     019B  0CDE               	rrf	??_main,f
   578     019C  3EFF               	addlw	-1
   579     019D  1D03               	skipz
   580     019E  2999               	goto	u2205
   581     019F  0867               	movf	_High+1,w
   582     01A0  00E1               	movwf	??_main+3
   583     01A1  0866               	movf	_High,w
   584     01A2  00E0               	movwf	??_main+2
   585     01A3  1003               	clrc
   586     01A4  0DE0               	rlf	??_main+2,f
   587     01A5  0DE1               	rlf	??_main+3,f
   588     01A6  1003               	clrc
   589     01A7  0DE0               	rlf	??_main+2,f
   590     01A8  0DE1               	rlf	??_main+3,f
   591     01A9  085E               	movf	??_main,w
   592     01AA  0760               	addwf	??_main+2,w
   593     01AB  00E2               	movwf	_Result
   594     01AC  085F               	movf	??_main+1,w
   595     01AD  1803               	skipnc
   596     01AE  0A5F               	incf	??_main+1,w
   597     01AF  0761               	addwf	??_main+3,w
   598     01B0  00E3               	movwf	_Result+1
   599     01B1                     l1674:
   600                           
   601                           ;AtoD_100V.c: 36:         Result=((float)Result/1023)*100;
   602     01B1  0862               	movf	_Result,w
   603     01B2  00F0               	movwf	___xxtofl@val
   604     01B3  0863               	movf	_Result+1,w
   605     01B4  00F1               	movwf	___xxtofl@val+1
   606     01B5  01F2               	clrf	___xxtofl@val+2
   607     01B6  01F3               	clrf	___xxtofl@val+3
   608     01B7  3000               	movlw	0
   609     01B8  120A  118A  2218  120A  118A  	fcall	___xxtofl
   610     01BD  0873               	movf	?___xxtofl+3,w
   611     01BE  1283               	bcf	3,5	;RP0=0, select bank0
   612     01BF  1303               	bcf	3,6	;RP1=0, select bank0
   613     01C0  00A7               	movwf	___fldiv@b+3
   614     01C1  0872               	movf	?___xxtofl+2,w
   615     01C2  00A6               	movwf	___fldiv@b+2
   616     01C3  0871               	movf	?___xxtofl+1,w
   617     01C4  00A5               	movwf	___fldiv@b+1
   618     01C5  0870               	movf	?___xxtofl,w
   619     01C6  00A4               	movwf	___fldiv@b
   620     01C7  3044               	movlw	68
   621     01C8  00A3               	movwf	___fldiv@a+3
   622     01C9  307F               	movlw	127
   623     01CA  00A2               	movwf	___fldiv@a+2
   624     01CB  30C0               	movlw	192
   625     01CC  00A1               	movwf	___fldiv@a+1
   626     01CD  3000               	movlw	0
   627     01CE  00A0               	movwf	___fldiv@a
   628     01CF  120A  118A  22D0  120A  118A  	fcall	___fldiv
   629     01D4  1283               	bcf	3,5	;RP0=0, select bank0
   630     01D5  1303               	bcf	3,6	;RP1=0, select bank0
   631     01D6  0823               	movf	?___fldiv+3,w
   632     01D7  00C1               	movwf	___flmul@a+3
   633     01D8  0822               	movf	?___fldiv+2,w
   634     01D9  00C0               	movwf	___flmul@a+2
   635     01DA  0821               	movf	?___fldiv+1,w
   636     01DB  00BF               	movwf	___flmul@a+1
   637     01DC  0820               	movf	?___fldiv,w
   638     01DD  00BE               	movwf	___flmul@a
   639     01DE  3042               	movlw	66
   640     01DF  00BD               	movwf	___flmul@b+3
   641     01E0  30C8               	movlw	200
   642     01E1  00BC               	movwf	___flmul@b+2
   643     01E2  3000               	movlw	0
   644     01E3  00BB               	movwf	___flmul@b+1
   645     01E4  3000               	movlw	0
   646     01E5  00BA               	movwf	___flmul@b
   647     01E6  120A  118A  249F  120A  118A  	fcall	___flmul
   648     01EB  1283               	bcf	3,5	;RP0=0, select bank0
   649     01EC  1303               	bcf	3,6	;RP1=0, select bank0
   650     01ED  083D               	movf	?___flmul+3,w
   651     01EE  00D7               	movwf	___fltol@f1+3
   652     01EF  083C               	movf	?___flmul+2,w
   653     01F0  00D6               	movwf	___fltol@f1+2
   654     01F1  083B               	movf	?___flmul+1,w
   655     01F2  00D5               	movwf	___fltol@f1+1
   656     01F3  083A               	movf	?___flmul,w
   657     01F4  00D4               	movwf	___fltol@f1
   658     01F5  120A  118A  20F8  120A  118A  	fcall	___fltol
   659     01FA  1283               	bcf	3,5	;RP0=0, select bank0
   660     01FB  1303               	bcf	3,6	;RP1=0, select bank0
   661     01FC  0855               	movf	?___fltol+1,w
   662     01FD  00E3               	movwf	_Result+1
   663     01FE  0854               	movf	?___fltol,w
   664     01FF  00E2               	movwf	_Result
   665     0200                     l1676:
   666                           
   667                           ;AtoD_100V.c: 37:         Lcd_printing(Result);
   668     0200  0863               	movf	_Result+1,w
   669     0201  00F8               	movwf	Lcd_printing@value+1
   670     0202  0862               	movf	_Result,w
   671     0203  00F7               	movwf	Lcd_printing@value
   672     0204  120A  118A  2093  120A  118A  	fcall	_Lcd_printing
   673     0209                     l1678:
   674                           
   675                           ;AtoD_100V.c: 38:         _delay((unsigned long)((100)*(6000000/4000.0)));
   676     0209  30C3               	movlw	195
   677     020A  1283               	bcf	3,5	;RP0=0, select bank0
   678     020B  1303               	bcf	3,6	;RP1=0, select bank0
   679     020C  00DF               	movwf	??_main+1
   680     020D  30CC               	movlw	204
   681     020E  00DE               	movwf	??_main
   682     020F                     u2217:
   683     020F  0BDE               	decfsz	??_main,f
   684     0210  2A0F               	goto	u2217
   685     0211  0BDF               	decfsz	??_main+1,f
   686     0212  2A0F               	goto	u2217
   687     0213  0000               	nop
   688     0214  2975               	goto	l39
   689     0215  120A  118A  2800   	ljmp	start
   690     0218                     __end_of_main:
   691                           
   692                           	psect	text1
   693     0218                     __ptext1:	
   694 ;; *************** function ___xxtofl *****************
   695 ;; Defined at:
   696 ;;		line 10 in file "C:\Program Files\Microchip\xc8\v2.41\pic\sources\c90\common\xxtofl.c"
   697 ;; Parameters:    Size  Location     Type
   698 ;;  sign            1    wreg     unsigned char 
   699 ;;  val             4    0[COMMON] long 
   700 ;; Auto vars:     Size  Location     Type
   701 ;;  sign            1    8[COMMON] unsigned char 
   702 ;;  arg             4   10[COMMON] unsigned long 
   703 ;;  exp             1    9[COMMON] unsigned char 
   704 ;; Return value:  Size  Location     Type
   705 ;;                  4    0[COMMON] unsigned char 
   706 ;; Registers used:
   707 ;;		wreg, status,2, status,0, btemp+1
   708 ;; Tracked objects:
   709 ;;		On entry : 0/0
   710 ;;		On exit  : 0/0
   711 ;;		Unchanged: 0/0
   712 ;; Data sizes:     COMMON   BANK0   BANK1   BANK3   BANK2
   713 ;;      Params:         4       0       0       0       0
   714 ;;      Locals:         6       0       0       0       0
   715 ;;      Temps:          4       0       0       0       0
   716 ;;      Totals:        14       0       0       0       0
   717 ;;Total ram usage:       14 bytes
   718 ;; Hardware stack levels used: 1
   719 ;; This function calls:
   720 ;;		Nothing
   721 ;; This function is called by:
   722 ;;		_main
   723 ;; This function uses a non-reentrant model
   724 ;;
   725                           
   726     0218                     ___xxtofl:	
   727                           ;psect for function ___xxtofl
   728                           
   729                           
   730                           ;incstack = 0
   731                           ; Regs used in ___xxtofl: [wreg+status,2+status,0+btemp+1]
   732                           ;___xxtofl@sign stored from wreg
   733     0218  00F8               	movwf	___xxtofl@sign
   734     0219                     l1618:
   735     0219  0878               	movf	___xxtofl@sign,w
   736     021A  1903               	btfsc	3,2
   737     021B  2A1D               	goto	u2051
   738     021C  2A1E               	goto	u2050
   739     021D                     u2051:
   740     021D  2A32               	goto	l1624
   741     021E                     u2050:
   742     021E                     l1620:
   743     021E  1FF3               	btfss	___xxtofl@val+3,7
   744     021F  2A21               	goto	u2061
   745     0220  2A22               	goto	u2060
   746     0221                     u2061:
   747     0221  2A32               	goto	l1624
   748     0222                     u2060:
   749     0222                     l1622:
   750     0222  0970               	comf	___xxtofl@val,w
   751     0223  00FA               	movwf	___xxtofl@arg
   752     0224  0971               	comf	___xxtofl@val+1,w
   753     0225  00FB               	movwf	___xxtofl@arg+1
   754     0226  0972               	comf	___xxtofl@val+2,w
   755     0227  00FC               	movwf	___xxtofl@arg+2
   756     0228  0973               	comf	___xxtofl@val+3,w
   757     0229  00FD               	movwf	___xxtofl@arg+3
   758     022A  0AFA               	incf	___xxtofl@arg,f
   759     022B  1903               	skipnz
   760     022C  0AFB               	incf	___xxtofl@arg+1,f
   761     022D  1903               	skipnz
   762     022E  0AFC               	incf	___xxtofl@arg+2,f
   763     022F  1903               	skipnz
   764     0230  0AFD               	incf	___xxtofl@arg+3,f
   765     0231  2A3A               	goto	l583
   766     0232                     l1624:
   767     0232  0873               	movf	___xxtofl@val+3,w
   768     0233  00FD               	movwf	___xxtofl@arg+3
   769     0234  0872               	movf	___xxtofl@val+2,w
   770     0235  00FC               	movwf	___xxtofl@arg+2
   771     0236  0871               	movf	___xxtofl@val+1,w
   772     0237  00FB               	movwf	___xxtofl@arg+1
   773     0238  0870               	movf	___xxtofl@val,w
   774     0239  00FA               	movwf	___xxtofl@arg
   775     023A                     l583:
   776     023A  0873               	movf	___xxtofl@val+3,w
   777     023B  0472               	iorwf	___xxtofl@val+2,w
   778     023C  0471               	iorwf	___xxtofl@val+1,w
   779     023D  0470               	iorwf	___xxtofl@val,w
   780     023E  1D03               	skipz
   781     023F  2A41               	goto	u2071
   782     0240  2A42               	goto	u2070
   783     0241                     u2071:
   784     0241  2A4B               	goto	l1630
   785     0242                     u2070:
   786     0242                     l1626:
   787     0242  3000               	movlw	0
   788     0243  00F3               	movwf	?___xxtofl+3
   789     0244  3000               	movlw	0
   790     0245  00F2               	movwf	?___xxtofl+2
   791     0246  3000               	movlw	0
   792     0247  00F1               	movwf	?___xxtofl+1
   793     0248  3000               	movlw	0
   794     0249  00F0               	movwf	?___xxtofl
   795     024A  2ACF               	goto	l585
   796     024B                     l1630:
   797     024B  3096               	movlw	150
   798     024C  00F9               	movwf	___xxtofl@exp
   799     024D  2A5B               	goto	l1636
   800     024E                     l1632:
   801     024E  3001               	movlw	1
   802     024F  00FF               	movwf	btemp+1
   803     0250  087F               	movf	btemp+1,w
   804     0251  07F9               	addwf	___xxtofl@exp,f
   805     0252                     l1634:
   806     0252  3001               	movlw	1
   807     0253                     u2085:
   808     0253  1003               	clrc
   809     0254  0CFD               	rrf	___xxtofl@arg+3,f
   810     0255  0CFC               	rrf	___xxtofl@arg+2,f
   811     0256  0CFB               	rrf	___xxtofl@arg+1,f
   812     0257  0CFA               	rrf	___xxtofl@arg,f
   813     0258  3EFF               	addlw	-1
   814     0259  1D03               	skipz
   815     025A  2A53               	goto	u2085
   816     025B                     l1636:
   817     025B  30FE               	movlw	254
   818     025C  057D               	andwf	___xxtofl@arg+3,w
   819     025D  1D03               	btfss	3,2
   820     025E  2A60               	goto	u2091
   821     025F  2A61               	goto	u2090
   822     0260                     u2091:
   823     0260  2A4E               	goto	l1632
   824     0261                     u2090:
   825     0261  2A7D               	goto	l1644
   826     0262                     l1638:
   827     0262  3001               	movlw	1
   828     0263  00FF               	movwf	btemp+1
   829     0264  087F               	movf	btemp+1,w
   830     0265  07F9               	addwf	___xxtofl@exp,f
   831     0266                     l1640:
   832     0266  3001               	movlw	1
   833     0267  07FA               	addwf	___xxtofl@arg,f
   834     0268  3000               	movlw	0
   835     0269  1803               	skipnc
   836     026A  3001               	movlw	1
   837     026B  07FB               	addwf	___xxtofl@arg+1,f
   838     026C  3000               	movlw	0
   839     026D  1803               	skipnc
   840     026E  3001               	movlw	1
   841     026F  07FC               	addwf	___xxtofl@arg+2,f
   842     0270  3000               	movlw	0
   843     0271  1803               	skipnc
   844     0272  3001               	movlw	1
   845     0273  07FD               	addwf	___xxtofl@arg+3,f
   846     0274                     l1642:
   847     0274  3001               	movlw	1
   848     0275                     u2105:
   849     0275  1003               	clrc
   850     0276  0CFD               	rrf	___xxtofl@arg+3,f
   851     0277  0CFC               	rrf	___xxtofl@arg+2,f
   852     0278  0CFB               	rrf	___xxtofl@arg+1,f
   853     0279  0CFA               	rrf	___xxtofl@arg,f
   854     027A  3EFF               	addlw	-1
   855     027B  1D03               	skipz
   856     027C  2A75               	goto	u2105
   857     027D                     l1644:
   858     027D  30FF               	movlw	255
   859     027E  057D               	andwf	___xxtofl@arg+3,w
   860     027F  1D03               	btfss	3,2
   861     0280  2A82               	goto	u2111
   862     0281  2A83               	goto	u2110
   863     0282                     u2111:
   864     0282  2A62               	goto	l1638
   865     0283                     u2110:
   866     0283  2A8F               	goto	l1648
   867     0284                     l1646:
   868     0284  3001               	movlw	1
   869     0285  02F9               	subwf	___xxtofl@exp,f
   870     0286  3001               	movlw	1
   871     0287  00F4               	movwf	??___xxtofl
   872     0288                     u2125:
   873     0288  1003               	clrc
   874     0289  0DFA               	rlf	___xxtofl@arg,f
   875     028A  0DFB               	rlf	___xxtofl@arg+1,f
   876     028B  0DFC               	rlf	___xxtofl@arg+2,f
   877     028C  0DFD               	rlf	___xxtofl@arg+3,f
   878     028D  0BF4               	decfsz	??___xxtofl,f
   879     028E  2A88               	goto	u2125
   880     028F                     l1648:
   881     028F  1BFC               	btfsc	___xxtofl@arg+2,7
   882     0290  2A92               	goto	u2131
   883     0291  2A93               	goto	u2130
   884     0292                     u2131:
   885     0292  2A99               	goto	l596
   886     0293                     u2130:
   887     0293                     l1650:
   888     0293  3002               	movlw	2
   889     0294  0279               	subwf	___xxtofl@exp,w
   890     0295  1803               	skipnc
   891     0296  2A98               	goto	u2141
   892     0297  2A99               	goto	u2140
   893     0298                     u2141:
   894     0298  2A84               	goto	l1646
   895     0299                     u2140:
   896     0299                     l596:
   897     0299  1879               	btfsc	___xxtofl@exp,0
   898     029A  2A9C               	goto	u2151
   899     029B  2A9D               	goto	u2150
   900     029C                     u2151:
   901     029C  2AA5               	goto	l597
   902     029D                     u2150:
   903     029D                     l1652:
   904     029D  30FF               	movlw	255
   905     029E  05FA               	andwf	___xxtofl@arg,f
   906     029F  30FF               	movlw	255
   907     02A0  05FB               	andwf	___xxtofl@arg+1,f
   908     02A1  307F               	movlw	127
   909     02A2  05FC               	andwf	___xxtofl@arg+2,f
   910     02A3  30FF               	movlw	255
   911     02A4  05FD               	andwf	___xxtofl@arg+3,f
   912     02A5                     l597:
   913     02A5  1003               	clrc
   914     02A6  0CF9               	rrf	___xxtofl@exp,f
   915     02A7                     l1654:
   916     02A7  0879               	movf	___xxtofl@exp,w
   917     02A8  00F4               	movwf	??___xxtofl
   918     02A9  01F5               	clrf	??___xxtofl+1
   919     02AA  01F6               	clrf	??___xxtofl+2
   920     02AB  01F7               	clrf	??___xxtofl+3
   921     02AC  3018               	movlw	24
   922     02AD                     u2165:
   923     02AD  1003               	clrc
   924     02AE  0DF4               	rlf	??___xxtofl,f
   925     02AF  0DF5               	rlf	??___xxtofl+1,f
   926     02B0  0DF6               	rlf	??___xxtofl+2,f
   927     02B1  0DF7               	rlf	??___xxtofl+3,f
   928     02B2                     u2160:
   929     02B2  3EFF               	addlw	-1
   930     02B3  1D03               	skipz
   931     02B4  2AAD               	goto	u2165
   932     02B5  0874               	movf	??___xxtofl,w
   933     02B6  04FA               	iorwf	___xxtofl@arg,f
   934     02B7  0875               	movf	??___xxtofl+1,w
   935     02B8  04FB               	iorwf	___xxtofl@arg+1,f
   936     02B9  0876               	movf	??___xxtofl+2,w
   937     02BA  04FC               	iorwf	___xxtofl@arg+2,f
   938     02BB  0877               	movf	??___xxtofl+3,w
   939     02BC  04FD               	iorwf	___xxtofl@arg+3,f
   940     02BD                     l1656:
   941     02BD  0878               	movf	___xxtofl@sign,w
   942     02BE  1903               	btfsc	3,2
   943     02BF  2AC1               	goto	u2171
   944     02C0  2AC2               	goto	u2170
   945     02C1                     u2171:
   946     02C1  2AC7               	goto	l1662
   947     02C2                     u2170:
   948     02C2                     l1658:
   949     02C2  1FF3               	btfss	___xxtofl@val+3,7
   950     02C3  2AC5               	goto	u2181
   951     02C4  2AC6               	goto	u2180
   952     02C5                     u2181:
   953     02C5  2AC7               	goto	l1662
   954     02C6                     u2180:
   955     02C6                     l1660:
   956     02C6  17FD               	bsf	___xxtofl@arg+3,7
   957     02C7                     l1662:
   958     02C7  087D               	movf	___xxtofl@arg+3,w
   959     02C8  00F3               	movwf	?___xxtofl+3
   960     02C9  087C               	movf	___xxtofl@arg+2,w
   961     02CA  00F2               	movwf	?___xxtofl+2
   962     02CB  087B               	movf	___xxtofl@arg+1,w
   963     02CC  00F1               	movwf	?___xxtofl+1
   964     02CD  087A               	movf	___xxtofl@arg,w
   965     02CE  00F0               	movwf	?___xxtofl
   966     02CF                     l585:
   967     02CF  0008               	return
   968     02D0                     __end_of___xxtofl:
   969                           
   970                           	psect	text2
   971     00F8                     __ptext2:	
   972 ;; *************** function ___fltol *****************
   973 ;; Defined at:
   974 ;;		line 43 in file "C:\Program Files\Microchip\xc8\v2.41\pic\sources\c90\common\fltol.c"
   975 ;; Parameters:    Size  Location     Type
   976 ;;  f1              4   52[BANK0 ] unsigned char 
   977 ;; Auto vars:     Size  Location     Type
   978 ;;  exp1            1   61[BANK0 ] unsigned char 
   979 ;;  sign1           1   60[BANK0 ] unsigned char 
   980 ;; Return value:  Size  Location     Type
   981 ;;                  4   52[BANK0 ] long 
   982 ;; Registers used:
   983 ;;		wreg, status,2, status,0, btemp+1
   984 ;; Tracked objects:
   985 ;;		On entry : 0/0
   986 ;;		On exit  : 0/0
   987 ;;		Unchanged: 0/0
   988 ;; Data sizes:     COMMON   BANK0   BANK1   BANK3   BANK2
   989 ;;      Params:         0       4       0       0       0
   990 ;;      Locals:         0       2       0       0       0
   991 ;;      Temps:          0       4       0       0       0
   992 ;;      Totals:         0      10       0       0       0
   993 ;;Total ram usage:       10 bytes
   994 ;; Hardware stack levels used: 1
   995 ;; This function calls:
   996 ;;		Nothing
   997 ;; This function is called by:
   998 ;;		_main
   999 ;; This function uses a non-reentrant model
  1000 ;;
  1001                           
  1002     00F8                     ___fltol:	
  1003                           ;psect for function ___fltol
  1004                           
  1005     00F8                     l1292:	
  1006                           ;incstack = 0
  1007                           ; Regs used in ___fltol: [wreg+status,2+status,0+btemp+1]
  1008                           
  1009     00F8  1003               	clrc
  1010     00F9  1283               	bcf	3,5	;RP0=0, select bank0
  1011     00FA  1303               	bcf	3,6	;RP1=0, select bank0
  1012     00FB  0D56               	rlf	___fltol@f1+2,w
  1013     00FC  0D57               	rlf	___fltol@f1+3,w
  1014     00FD  00DD               	movwf	___fltol@exp1
  1015     00FE  085D               	movf	___fltol@exp1,w
  1016     00FF  1D03               	btfss	3,2
  1017     0100  2902               	goto	u1291
  1018     0101  2903               	goto	u1290
  1019     0102                     u1291:
  1020     0102  290C               	goto	l1298
  1021     0103                     u1290:
  1022     0103                     l1294:
  1023     0103  3000               	movlw	0
  1024     0104  00D7               	movwf	?___fltol+3
  1025     0105  3000               	movlw	0
  1026     0106  00D6               	movwf	?___fltol+2
  1027     0107  3000               	movlw	0
  1028     0108  00D5               	movwf	?___fltol+1
  1029     0109  3000               	movlw	0
  1030     010A  00D4               	movwf	?___fltol
  1031     010B  296F               	goto	l336
  1032     010C                     l1298:
  1033     010C  0854               	movf	___fltol@f1,w
  1034     010D  00D8               	movwf	??___fltol
  1035     010E  0855               	movf	___fltol@f1+1,w
  1036     010F  00D9               	movwf	??___fltol+1
  1037     0110  0856               	movf	___fltol@f1+2,w
  1038     0111  00DA               	movwf	??___fltol+2
  1039     0112  0857               	movf	___fltol@f1+3,w
  1040     0113  00DB               	movwf	??___fltol+3
  1041     0114  301F               	movlw	31
  1042     0115                     u1305:
  1043     0115  1003               	clrc
  1044     0116  0CDB               	rrf	??___fltol+3,f
  1045     0117  0CDA               	rrf	??___fltol+2,f
  1046     0118  0CD9               	rrf	??___fltol+1,f
  1047     0119  0CD8               	rrf	??___fltol,f
  1048     011A                     u1300:
  1049     011A  3EFF               	addlw	-1
  1050     011B  1D03               	skipz
  1051     011C  2915               	goto	u1305
  1052     011D  0858               	movf	??___fltol,w
  1053     011E  00DC               	movwf	___fltol@sign1
  1054     011F                     l1300:
  1055     011F  17D6               	bsf	___fltol@f1+2,7
  1056     0120                     l1302:
  1057     0120  30FF               	movlw	255
  1058     0121  05D4               	andwf	___fltol@f1,f
  1059     0122  30FF               	movlw	255
  1060     0123  05D5               	andwf	___fltol@f1+1,f
  1061     0124  30FF               	movlw	255
  1062     0125  05D6               	andwf	___fltol@f1+2,f
  1063     0126  3000               	movlw	0
  1064     0127  05D7               	andwf	___fltol@f1+3,f
  1065     0128                     l1304:
  1066     0128  3096               	movlw	150
  1067     0129  02DD               	subwf	___fltol@exp1,f
  1068     012A                     l1306:
  1069     012A  1FDD               	btfss	___fltol@exp1,7
  1070     012B  292D               	goto	u1311
  1071     012C  292E               	goto	u1310
  1072     012D                     u1311:
  1073     012D  2948               	goto	l1318
  1074     012E                     u1310:
  1075     012E                     l1308:
  1076     012E  085D               	movf	___fltol@exp1,w
  1077     012F  3A80               	xorlw	128
  1078     0130  3E97               	addlw	151
  1079     0131  1803               	skipnc
  1080     0132  2934               	goto	u1321
  1081     0133  2935               	goto	u1320
  1082     0134                     u1321:
  1083     0134  2936               	goto	l1314
  1084     0135                     u1320:
  1085     0135  2903               	goto	l1294
  1086     0136                     l1314:
  1087     0136  3001               	movlw	1
  1088     0137                     u1335:
  1089     0137  1003               	clrc
  1090     0138  0CD7               	rrf	___fltol@f1+3,f
  1091     0139  0CD6               	rrf	___fltol@f1+2,f
  1092     013A  0CD5               	rrf	___fltol@f1+1,f
  1093     013B  0CD4               	rrf	___fltol@f1,f
  1094     013C  3EFF               	addlw	-1
  1095     013D  1D03               	skipz
  1096     013E  2937               	goto	u1335
  1097     013F                     l1316:
  1098     013F  3001               	movlw	1
  1099     0140  00FF               	movwf	btemp+1
  1100     0141  087F               	movf	btemp+1,w
  1101     0142  07DD               	addwf	___fltol@exp1,f
  1102     0143  1D03               	btfss	3,2
  1103     0144  2946               	goto	u1341
  1104     0145  2947               	goto	u1340
  1105     0146                     u1341:
  1106     0146  2936               	goto	l1314
  1107     0147                     u1340:
  1108     0147  295F               	goto	l1326
  1109     0148                     l1318:
  1110     0148  3020               	movlw	32
  1111     0149  025D               	subwf	___fltol@exp1,w
  1112     014A  1C03               	skipc
  1113     014B  294D               	goto	u1351
  1114     014C  294E               	goto	u1350
  1115     014D                     u1351:
  1116     014D  295A               	goto	l343
  1117     014E                     u1350:
  1118     014E  2903               	goto	l1294
  1119     014F                     l1324:
  1120     014F  3001               	movlw	1
  1121     0150  00D8               	movwf	??___fltol
  1122     0151                     u1365:
  1123     0151  1003               	clrc
  1124     0152  0DD4               	rlf	___fltol@f1,f
  1125     0153  0DD5               	rlf	___fltol@f1+1,f
  1126     0154  0DD6               	rlf	___fltol@f1+2,f
  1127     0155  0DD7               	rlf	___fltol@f1+3,f
  1128     0156  0BD8               	decfsz	??___fltol,f
  1129     0157  2951               	goto	u1365
  1130     0158  3001               	movlw	1
  1131     0159  02DD               	subwf	___fltol@exp1,f
  1132     015A                     l343:
  1133     015A  085D               	movf	___fltol@exp1,w
  1134     015B  1D03               	btfss	3,2
  1135     015C  295E               	goto	u1371
  1136     015D  295F               	goto	u1370
  1137     015E                     u1371:
  1138     015E  294F               	goto	l1324
  1139     015F                     u1370:
  1140     015F                     l1326:
  1141     015F  085C               	movf	___fltol@sign1,w
  1142     0160  1903               	btfsc	3,2
  1143     0161  2963               	goto	u1381
  1144     0162  2964               	goto	u1380
  1145     0163                     u1381:
  1146     0163  296F               	goto	l346
  1147     0164                     u1380:
  1148     0164                     l1328:
  1149     0164  09D4               	comf	___fltol@f1,f
  1150     0165  09D5               	comf	___fltol@f1+1,f
  1151     0166  09D6               	comf	___fltol@f1+2,f
  1152     0167  09D7               	comf	___fltol@f1+3,f
  1153     0168  0AD4               	incf	___fltol@f1,f
  1154     0169  1903               	skipnz
  1155     016A  0AD5               	incf	___fltol@f1+1,f
  1156     016B  1903               	skipnz
  1157     016C  0AD6               	incf	___fltol@f1+2,f
  1158     016D  1903               	skipnz
  1159     016E  0AD7               	incf	___fltol@f1+3,f
  1160     016F                     l346:
  1161     016F                     l336:
  1162     016F  0008               	return
  1163     0170                     __end_of___fltol:
  1164                           
  1165                           	psect	text3
  1166     049F                     __ptext3:	
  1167 ;; *************** function ___flmul *****************
  1168 ;; Defined at:
  1169 ;;		line 8 in file "C:\Program Files\Microchip\xc8\v2.41\pic\sources\c90\common\sprcmul.c"
  1170 ;; Parameters:    Size  Location     Type
  1171 ;;  b               4   26[BANK0 ] long 
  1172 ;;  a               4   30[BANK0 ] long 
  1173 ;; Auto vars:     Size  Location     Type
  1174 ;;  prod            4   46[BANK0 ] struct .
  1175 ;;  grs             4   40[BANK0 ] unsigned long 
  1176 ;;  temp            2   50[BANK0 ] struct .
  1177 ;;  bexp            1   45[BANK0 ] unsigned char 
  1178 ;;  aexp            1   44[BANK0 ] unsigned char 
  1179 ;;  sign            1   39[BANK0 ] unsigned char 
  1180 ;; Return value:  Size  Location     Type
  1181 ;;                  4   26[BANK0 ] unsigned char 
  1182 ;; Registers used:
  1183 ;;		wreg, status,2, status,0, btemp+1, pclath, cstack
  1184 ;; Tracked objects:
  1185 ;;		On entry : 0/0
  1186 ;;		On exit  : 0/0
  1187 ;;		Unchanged: 0/0
  1188 ;; Data sizes:     COMMON   BANK0   BANK1   BANK3   BANK2
  1189 ;;      Params:         0       8       0       0       0
  1190 ;;      Locals:         0      13       0       0       0
  1191 ;;      Temps:          0       5       0       0       0
  1192 ;;      Totals:         0      26       0       0       0
  1193 ;;Total ram usage:       26 bytes
  1194 ;; Hardware stack levels used: 1
  1195 ;; Hardware stack levels required when called: 1
  1196 ;; This function calls:
  1197 ;;		__Umul8_16
  1198 ;; This function is called by:
  1199 ;;		_main
  1200 ;; This function uses a non-reentrant model
  1201 ;;
  1202                           
  1203     049F                     ___flmul:	
  1204                           ;psect for function ___flmul
  1205                           
  1206     049F                     l1476:	
  1207                           ;incstack = 0
  1208                           ; Regs used in ___flmul: [wreg+status,2+status,0+btemp+1+pclath+cstack]
  1209                           
  1210     049F  1283               	bcf	3,5	;RP0=0, select bank0
  1211     04A0  1303               	bcf	3,6	;RP1=0, select bank0
  1212     04A1  083D               	movf	___flmul@b+3,w
  1213     04A2  3980               	andlw	128
  1214     04A3  00C7               	movwf	___flmul@sign
  1215     04A4                     l1478:
  1216     04A4  083D               	movf	___flmul@b+3,w
  1217     04A5  00C2               	movwf	??___flmul
  1218     04A6  0742               	addwf	??___flmul,w
  1219     04A7  00CD               	movwf	___flmul@bexp
  1220     04A8                     l1480:
  1221     04A8  1FBC               	btfss	___flmul@b+2,7
  1222     04A9  2CAB               	goto	u1681
  1223     04AA  2CAC               	goto	u1680
  1224     04AB                     u1681:
  1225     04AB  2CAD               	goto	l1484
  1226     04AC                     u1680:
  1227     04AC                     l1482:
  1228     04AC  144D               	bsf	___flmul@bexp,0
  1229     04AD                     l1484:
  1230     04AD  084D               	movf	___flmul@bexp,w
  1231     04AE  1903               	btfsc	3,2
  1232     04AF  2CB1               	goto	u1691
  1233     04B0  2CB2               	goto	u1690
  1234     04B1                     u1691:
  1235     04B1  2CC1               	goto	l1492
  1236     04B2                     u1690:
  1237     04B2                     l1486:
  1238     04B2  0A4D               	incf	___flmul@bexp,w
  1239     04B3  1D03               	btfss	3,2
  1240     04B4  2CB6               	goto	u1701
  1241     04B5  2CB7               	goto	u1700
  1242     04B6                     u1701:
  1243     04B6  2CBF               	goto	l1490
  1244     04B7                     u1700:
  1245     04B7                     l1488:
  1246     04B7  3000               	movlw	0
  1247     04B8  00BD               	movwf	___flmul@b+3
  1248     04B9  3000               	movlw	0
  1249     04BA  00BC               	movwf	___flmul@b+2
  1250     04BB  3000               	movlw	0
  1251     04BC  00BB               	movwf	___flmul@b+1
  1252     04BD  3000               	movlw	0
  1253     04BE  00BA               	movwf	___flmul@b
  1254     04BF                     l1490:
  1255     04BF  17BC               	bsf	___flmul@b+2,7
  1256     04C0  2CC9               	goto	l1494
  1257     04C1                     l1492:
  1258     04C1  3000               	movlw	0
  1259     04C2  00BD               	movwf	___flmul@b+3
  1260     04C3  3000               	movlw	0
  1261     04C4  00BC               	movwf	___flmul@b+2
  1262     04C5  3000               	movlw	0
  1263     04C6  00BB               	movwf	___flmul@b+1
  1264     04C7  3000               	movlw	0
  1265     04C8  00BA               	movwf	___flmul@b
  1266     04C9                     l1494:
  1267     04C9  0841               	movf	___flmul@a+3,w
  1268     04CA  3980               	andlw	128
  1269     04CB  00FF               	movwf	btemp+1
  1270     04CC  087F               	movf	btemp+1,w
  1271     04CD  06C7               	xorwf	___flmul@sign,f
  1272     04CE                     l1496:
  1273     04CE  0841               	movf	___flmul@a+3,w
  1274     04CF  00C2               	movwf	??___flmul
  1275     04D0  0742               	addwf	??___flmul,w
  1276     04D1  00CC               	movwf	___flmul@aexp
  1277     04D2                     l1498:
  1278     04D2  1FC0               	btfss	___flmul@a+2,7
  1279     04D3  2CD5               	goto	u1711
  1280     04D4  2CD6               	goto	u1710
  1281     04D5                     u1711:
  1282     04D5  2CD7               	goto	l1502
  1283     04D6                     u1710:
  1284     04D6                     l1500:
  1285     04D6  144C               	bsf	___flmul@aexp,0
  1286     04D7                     l1502:
  1287     04D7  084C               	movf	___flmul@aexp,w
  1288     04D8  1903               	btfsc	3,2
  1289     04D9  2CDB               	goto	u1721
  1290     04DA  2CDC               	goto	u1720
  1291     04DB                     u1721:
  1292     04DB  2CEB               	goto	l1510
  1293     04DC                     u1720:
  1294     04DC                     l1504:
  1295     04DC  0A4C               	incf	___flmul@aexp,w
  1296     04DD  1D03               	btfss	3,2
  1297     04DE  2CE0               	goto	u1731
  1298     04DF  2CE1               	goto	u1730
  1299     04E0                     u1731:
  1300     04E0  2CE9               	goto	l1508
  1301     04E1                     u1730:
  1302     04E1                     l1506:
  1303     04E1  3000               	movlw	0
  1304     04E2  00C1               	movwf	___flmul@a+3
  1305     04E3  3000               	movlw	0
  1306     04E4  00C0               	movwf	___flmul@a+2
  1307     04E5  3000               	movlw	0
  1308     04E6  00BF               	movwf	___flmul@a+1
  1309     04E7  3000               	movlw	0
  1310     04E8  00BE               	movwf	___flmul@a
  1311     04E9                     l1508:
  1312     04E9  17C0               	bsf	___flmul@a+2,7
  1313     04EA  2CF3               	goto	l1512
  1314     04EB                     l1510:
  1315     04EB  3000               	movlw	0
  1316     04EC  00C1               	movwf	___flmul@a+3
  1317     04ED  3000               	movlw	0
  1318     04EE  00C0               	movwf	___flmul@a+2
  1319     04EF  3000               	movlw	0
  1320     04F0  00BF               	movwf	___flmul@a+1
  1321     04F1  3000               	movlw	0
  1322     04F2  00BE               	movwf	___flmul@a
  1323     04F3                     l1512:
  1324     04F3  084C               	movf	___flmul@aexp,w
  1325     04F4  1903               	btfsc	3,2
  1326     04F5  2CF7               	goto	u1741
  1327     04F6  2CF8               	goto	u1740
  1328     04F7                     u1741:
  1329     04F7  2CFD               	goto	l1516
  1330     04F8                     u1740:
  1331     04F8                     l1514:
  1332     04F8  084D               	movf	___flmul@bexp,w
  1333     04F9  1D03               	btfss	3,2
  1334     04FA  2CFC               	goto	u1751
  1335     04FB  2CFD               	goto	u1750
  1336     04FC                     u1751:
  1337     04FC  2D06               	goto	l1520
  1338     04FD                     u1750:
  1339     04FD                     l1516:
  1340     04FD  3000               	movlw	0
  1341     04FE  00BD               	movwf	?___flmul+3
  1342     04FF  3000               	movlw	0
  1343     0500  00BC               	movwf	?___flmul+2
  1344     0501  3000               	movlw	0
  1345     0502  00BB               	movwf	?___flmul+1
  1346     0503  3000               	movlw	0
  1347     0504  00BA               	movwf	?___flmul
  1348     0505  2FE3               	goto	l539
  1349     0506                     l1520:
  1350     0506  083A               	movf	___flmul@b,w
  1351     0507  00F0               	movwf	__Umul8_16@multiplicand
  1352     0508  0840               	movf	___flmul@a+2,w
  1353     0509  120A  158A  2795  120A  118A  	fcall	__Umul8_16
  1354     050E  0871               	movf	?__Umul8_16+1,w
  1355     050F  1283               	bcf	3,5	;RP0=0, select bank0
  1356     0510  1303               	bcf	3,6	;RP1=0, select bank0
  1357     0511  00D3               	movwf	___flmul@temp+1
  1358     0512  0870               	movf	?__Umul8_16,w
  1359     0513  00D2               	movwf	___flmul@temp
  1360     0514                     l1522:
  1361     0514  0852               	movf	___flmul@temp,w
  1362     0515  00C2               	movwf	??___flmul
  1363     0516  01C3               	clrf	??___flmul+1
  1364     0517  01C4               	clrf	??___flmul+2
  1365     0518  01C5               	clrf	??___flmul+3
  1366     0519  0845               	movf	??___flmul+3,w
  1367     051A  00CB               	movwf	___flmul@grs+3
  1368     051B  0844               	movf	??___flmul+2,w
  1369     051C  00CA               	movwf	___flmul@grs+2
  1370     051D  0843               	movf	??___flmul+1,w
  1371     051E  00C9               	movwf	___flmul@grs+1
  1372     051F  0842               	movf	??___flmul,w
  1373     0520  00C8               	movwf	___flmul@grs
  1374     0521                     l1524:
  1375     0521  0853               	movf	___flmul@temp+1,w
  1376     0522  00C2               	movwf	??___flmul
  1377     0523  01C3               	clrf	??___flmul+1
  1378     0524  01C4               	clrf	??___flmul+2
  1379     0525  01C5               	clrf	??___flmul+3
  1380     0526  0845               	movf	??___flmul+3,w
  1381     0527  00D1               	movwf	___flmul@prod+3
  1382     0528  0844               	movf	??___flmul+2,w
  1383     0529  00D0               	movwf	___flmul@prod+2
  1384     052A  0843               	movf	??___flmul+1,w
  1385     052B  00CF               	movwf	___flmul@prod+1
  1386     052C  0842               	movf	??___flmul,w
  1387     052D  00CE               	movwf	___flmul@prod
  1388     052E  083B               	movf	___flmul@b+1,w
  1389     052F  00F0               	movwf	__Umul8_16@multiplicand
  1390     0530  083F               	movf	___flmul@a+1,w
  1391     0531  120A  158A  2795  120A  118A  	fcall	__Umul8_16
  1392     0536  0871               	movf	?__Umul8_16+1,w
  1393     0537  1283               	bcf	3,5	;RP0=0, select bank0
  1394     0538  1303               	bcf	3,6	;RP1=0, select bank0
  1395     0539  00D3               	movwf	___flmul@temp+1
  1396     053A  0870               	movf	?__Umul8_16,w
  1397     053B  00D2               	movwf	___flmul@temp
  1398     053C                     l1526:
  1399     053C  0852               	movf	___flmul@temp,w
  1400     053D  00C2               	movwf	??___flmul
  1401     053E  01C3               	clrf	??___flmul+1
  1402     053F  01C4               	clrf	??___flmul+2
  1403     0540  01C5               	clrf	??___flmul+3
  1404     0541  0842               	movf	??___flmul,w
  1405     0542  07C8               	addwf	___flmul@grs,f
  1406     0543  0843               	movf	??___flmul+1,w
  1407     0544  1103               	clrz
  1408     0545  1803               	skipnc
  1409     0546  3E01               	addlw	1
  1410     0547  1903               	skipnz
  1411     0548  2D4A               	goto	u1761
  1412     0549  07C9               	addwf	___flmul@grs+1,f
  1413     054A                     u1761:
  1414     054A  0844               	movf	??___flmul+2,w
  1415     054B  1103               	clrz
  1416     054C  1803               	skipnc
  1417     054D  3E01               	addlw	1
  1418     054E  1903               	skipnz
  1419     054F  2D51               	goto	u1762
  1420     0550  07CA               	addwf	___flmul@grs+2,f
  1421     0551                     u1762:
  1422     0551  0845               	movf	??___flmul+3,w
  1423     0552  1103               	clrz
  1424     0553  1803               	skipnc
  1425     0554  3E01               	addlw	1
  1426     0555  1903               	skipnz
  1427     0556  2D58               	goto	u1763
  1428     0557  07CB               	addwf	___flmul@grs+3,f
  1429     0558                     u1763:
  1430     0558                     l1528:
  1431     0558  0853               	movf	___flmul@temp+1,w
  1432     0559  00C2               	movwf	??___flmul
  1433     055A  01C3               	clrf	??___flmul+1
  1434     055B  01C4               	clrf	??___flmul+2
  1435     055C  01C5               	clrf	??___flmul+3
  1436     055D  0842               	movf	??___flmul,w
  1437     055E  07CE               	addwf	___flmul@prod,f
  1438     055F  0843               	movf	??___flmul+1,w
  1439     0560  1103               	clrz
  1440     0561  1803               	skipnc
  1441     0562  3E01               	addlw	1
  1442     0563  1903               	skipnz
  1443     0564  2D66               	goto	u1771
  1444     0565  07CF               	addwf	___flmul@prod+1,f
  1445     0566                     u1771:
  1446     0566  0844               	movf	??___flmul+2,w
  1447     0567  1103               	clrz
  1448     0568  1803               	skipnc
  1449     0569  3E01               	addlw	1
  1450     056A  1903               	skipnz
  1451     056B  2D6D               	goto	u1772
  1452     056C  07D0               	addwf	___flmul@prod+2,f
  1453     056D                     u1772:
  1454     056D  0845               	movf	??___flmul+3,w
  1455     056E  1103               	clrz
  1456     056F  1803               	skipnc
  1457     0570  3E01               	addlw	1
  1458     0571  1903               	skipnz
  1459     0572  2D74               	goto	u1773
  1460     0573  07D1               	addwf	___flmul@prod+3,f
  1461     0574                     u1773:
  1462     0574  083C               	movf	___flmul@b+2,w
  1463     0575  00F0               	movwf	__Umul8_16@multiplicand
  1464     0576  083E               	movf	___flmul@a,w
  1465     0577  120A  158A  2795  120A  118A  	fcall	__Umul8_16
  1466     057C  0871               	movf	?__Umul8_16+1,w
  1467     057D  1283               	bcf	3,5	;RP0=0, select bank0
  1468     057E  1303               	bcf	3,6	;RP1=0, select bank0
  1469     057F  00D3               	movwf	___flmul@temp+1
  1470     0580  0870               	movf	?__Umul8_16,w
  1471     0581  00D2               	movwf	___flmul@temp
  1472     0582                     l1530:
  1473     0582  0852               	movf	___flmul@temp,w
  1474     0583  00C2               	movwf	??___flmul
  1475     0584  01C3               	clrf	??___flmul+1
  1476     0585  01C4               	clrf	??___flmul+2
  1477     0586  01C5               	clrf	??___flmul+3
  1478     0587  0842               	movf	??___flmul,w
  1479     0588  07C8               	addwf	___flmul@grs,f
  1480     0589  0843               	movf	??___flmul+1,w
  1481     058A  1103               	clrz
  1482     058B  1803               	skipnc
  1483     058C  3E01               	addlw	1
  1484     058D  1903               	skipnz
  1485     058E  2D90               	goto	u1781
  1486     058F  07C9               	addwf	___flmul@grs+1,f
  1487     0590                     u1781:
  1488     0590  0844               	movf	??___flmul+2,w
  1489     0591  1103               	clrz
  1490     0592  1803               	skipnc
  1491     0593  3E01               	addlw	1
  1492     0594  1903               	skipnz
  1493     0595  2D97               	goto	u1782
  1494     0596  07CA               	addwf	___flmul@grs+2,f
  1495     0597                     u1782:
  1496     0597  0845               	movf	??___flmul+3,w
  1497     0598  1103               	clrz
  1498     0599  1803               	skipnc
  1499     059A  3E01               	addlw	1
  1500     059B  1903               	skipnz
  1501     059C  2D9E               	goto	u1783
  1502     059D  07CB               	addwf	___flmul@grs+3,f
  1503     059E                     u1783:
  1504     059E                     l1532:
  1505     059E  0853               	movf	___flmul@temp+1,w
  1506     059F  00C2               	movwf	??___flmul
  1507     05A0  01C3               	clrf	??___flmul+1
  1508     05A1  01C4               	clrf	??___flmul+2
  1509     05A2  01C5               	clrf	??___flmul+3
  1510     05A3  0842               	movf	??___flmul,w
  1511     05A4  07CE               	addwf	___flmul@prod,f
  1512     05A5  0843               	movf	??___flmul+1,w
  1513     05A6  1103               	clrz
  1514     05A7  1803               	skipnc
  1515     05A8  3E01               	addlw	1
  1516     05A9  1903               	skipnz
  1517     05AA  2DAC               	goto	u1791
  1518     05AB  07CF               	addwf	___flmul@prod+1,f
  1519     05AC                     u1791:
  1520     05AC  0844               	movf	??___flmul+2,w
  1521     05AD  1103               	clrz
  1522     05AE  1803               	skipnc
  1523     05AF  3E01               	addlw	1
  1524     05B0  1903               	skipnz
  1525     05B1  2DB3               	goto	u1792
  1526     05B2  07D0               	addwf	___flmul@prod+2,f
  1527     05B3                     u1792:
  1528     05B3  0845               	movf	??___flmul+3,w
  1529     05B4  1103               	clrz
  1530     05B5  1803               	skipnc
  1531     05B6  3E01               	addlw	1
  1532     05B7  1903               	skipnz
  1533     05B8  2DBA               	goto	u1793
  1534     05B9  07D1               	addwf	___flmul@prod+3,f
  1535     05BA                     u1793:
  1536     05BA                     l1534:
  1537     05BA  3008               	movlw	8
  1538     05BB  00C2               	movwf	??___flmul
  1539     05BC                     u1805:
  1540     05BC  1003               	clrc
  1541     05BD  0DC8               	rlf	___flmul@grs,f
  1542     05BE  0DC9               	rlf	___flmul@grs+1,f
  1543     05BF  0DCA               	rlf	___flmul@grs+2,f
  1544     05C0  0DCB               	rlf	___flmul@grs+3,f
  1545     05C1  0BC2               	decfsz	??___flmul,f
  1546     05C2  2DBC               	goto	u1805
  1547     05C3                     l1536:
  1548     05C3  083B               	movf	___flmul@b+1,w
  1549     05C4  00F0               	movwf	__Umul8_16@multiplicand
  1550     05C5  083E               	movf	___flmul@a,w
  1551     05C6  120A  158A  2795  120A  118A  	fcall	__Umul8_16
  1552     05CB  0871               	movf	?__Umul8_16+1,w
  1553     05CC  1283               	bcf	3,5	;RP0=0, select bank0
  1554     05CD  1303               	bcf	3,6	;RP1=0, select bank0
  1555     05CE  00D3               	movwf	___flmul@temp+1
  1556     05CF  0870               	movf	?__Umul8_16,w
  1557     05D0  00D2               	movwf	___flmul@temp
  1558     05D1                     l1538:
  1559     05D1  0852               	movf	___flmul@temp,w
  1560     05D2  00C2               	movwf	??___flmul
  1561     05D3  0853               	movf	___flmul@temp+1,w
  1562     05D4  00C3               	movwf	??___flmul+1
  1563     05D5  01C4               	clrf	??___flmul+2
  1564     05D6  01C5               	clrf	??___flmul+3
  1565     05D7  0842               	movf	??___flmul,w
  1566     05D8  07C8               	addwf	___flmul@grs,f
  1567     05D9  0843               	movf	??___flmul+1,w
  1568     05DA  1103               	clrz
  1569     05DB  1803               	skipnc
  1570     05DC  3E01               	addlw	1
  1571     05DD  1903               	skipnz
  1572     05DE  2DE0               	goto	u1811
  1573     05DF  07C9               	addwf	___flmul@grs+1,f
  1574     05E0                     u1811:
  1575     05E0  0844               	movf	??___flmul+2,w
  1576     05E1  1103               	clrz
  1577     05E2  1803               	skipnc
  1578     05E3  3E01               	addlw	1
  1579     05E4  1903               	skipnz
  1580     05E5  2DE7               	goto	u1812
  1581     05E6  07CA               	addwf	___flmul@grs+2,f
  1582     05E7                     u1812:
  1583     05E7  0845               	movf	??___flmul+3,w
  1584     05E8  1103               	clrz
  1585     05E9  1803               	skipnc
  1586     05EA  3E01               	addlw	1
  1587     05EB  1903               	skipnz
  1588     05EC  2DEE               	goto	u1813
  1589     05ED  07CB               	addwf	___flmul@grs+3,f
  1590     05EE                     u1813:
  1591     05EE                     l1540:
  1592     05EE  083A               	movf	___flmul@b,w
  1593     05EF  00F0               	movwf	__Umul8_16@multiplicand
  1594     05F0  083F               	movf	___flmul@a+1,w
  1595     05F1  120A  158A  2795  120A  118A  	fcall	__Umul8_16
  1596     05F6  0871               	movf	?__Umul8_16+1,w
  1597     05F7  1283               	bcf	3,5	;RP0=0, select bank0
  1598     05F8  1303               	bcf	3,6	;RP1=0, select bank0
  1599     05F9  00D3               	movwf	___flmul@temp+1
  1600     05FA  0870               	movf	?__Umul8_16,w
  1601     05FB  00D2               	movwf	___flmul@temp
  1602     05FC                     l1542:
  1603     05FC  0852               	movf	___flmul@temp,w
  1604     05FD  00C2               	movwf	??___flmul
  1605     05FE  0853               	movf	___flmul@temp+1,w
  1606     05FF  00C3               	movwf	??___flmul+1
  1607     0600  01C4               	clrf	??___flmul+2
  1608     0601  01C5               	clrf	??___flmul+3
  1609     0602  0842               	movf	??___flmul,w
  1610     0603  07C8               	addwf	___flmul@grs,f
  1611     0604  0843               	movf	??___flmul+1,w
  1612     0605  1103               	clrz
  1613     0606  1803               	skipnc
  1614     0607  3E01               	addlw	1
  1615     0608  1903               	skipnz
  1616     0609  2E0B               	goto	u1821
  1617     060A  07C9               	addwf	___flmul@grs+1,f
  1618     060B                     u1821:
  1619     060B  0844               	movf	??___flmul+2,w
  1620     060C  1103               	clrz
  1621     060D  1803               	skipnc
  1622     060E  3E01               	addlw	1
  1623     060F  1903               	skipnz
  1624     0610  2E12               	goto	u1822
  1625     0611  07CA               	addwf	___flmul@grs+2,f
  1626     0612                     u1822:
  1627     0612  0845               	movf	??___flmul+3,w
  1628     0613  1103               	clrz
  1629     0614  1803               	skipnc
  1630     0615  3E01               	addlw	1
  1631     0616  1903               	skipnz
  1632     0617  2E19               	goto	u1823
  1633     0618  07CB               	addwf	___flmul@grs+3,f
  1634     0619                     u1823:
  1635     0619                     l1544:
  1636     0619  3008               	movlw	8
  1637     061A  00C2               	movwf	??___flmul
  1638     061B                     u1835:
  1639     061B  1003               	clrc
  1640     061C  0DC8               	rlf	___flmul@grs,f
  1641     061D  0DC9               	rlf	___flmul@grs+1,f
  1642     061E  0DCA               	rlf	___flmul@grs+2,f
  1643     061F  0DCB               	rlf	___flmul@grs+3,f
  1644     0620  0BC2               	decfsz	??___flmul,f
  1645     0621  2E1B               	goto	u1835
  1646     0622  083A               	movf	___flmul@b,w
  1647     0623  00F0               	movwf	__Umul8_16@multiplicand
  1648     0624  083E               	movf	___flmul@a,w
  1649     0625  120A  158A  2795  120A  118A  	fcall	__Umul8_16
  1650     062A  0871               	movf	?__Umul8_16+1,w
  1651     062B  1283               	bcf	3,5	;RP0=0, select bank0
  1652     062C  1303               	bcf	3,6	;RP1=0, select bank0
  1653     062D  00D3               	movwf	___flmul@temp+1
  1654     062E  0870               	movf	?__Umul8_16,w
  1655     062F  00D2               	movwf	___flmul@temp
  1656     0630                     l1546:
  1657     0630  0852               	movf	___flmul@temp,w
  1658     0631  00C2               	movwf	??___flmul
  1659     0632  0853               	movf	___flmul@temp+1,w
  1660     0633  00C3               	movwf	??___flmul+1
  1661     0634  01C4               	clrf	??___flmul+2
  1662     0635  01C5               	clrf	??___flmul+3
  1663     0636  0842               	movf	??___flmul,w
  1664     0637  07C8               	addwf	___flmul@grs,f
  1665     0638  0843               	movf	??___flmul+1,w
  1666     0639  1103               	clrz
  1667     063A  1803               	skipnc
  1668     063B  3E01               	addlw	1
  1669     063C  1903               	skipnz
  1670     063D  2E3F               	goto	u1841
  1671     063E  07C9               	addwf	___flmul@grs+1,f
  1672     063F                     u1841:
  1673     063F  0844               	movf	??___flmul+2,w
  1674     0640  1103               	clrz
  1675     0641  1803               	skipnc
  1676     0642  3E01               	addlw	1
  1677     0643  1903               	skipnz
  1678     0644  2E46               	goto	u1842
  1679     0645  07CA               	addwf	___flmul@grs+2,f
  1680     0646                     u1842:
  1681     0646  0845               	movf	??___flmul+3,w
  1682     0647  1103               	clrz
  1683     0648  1803               	skipnc
  1684     0649  3E01               	addlw	1
  1685     064A  1903               	skipnz
  1686     064B  2E4D               	goto	u1843
  1687     064C  07CB               	addwf	___flmul@grs+3,f
  1688     064D                     u1843:
  1689     064D                     l1548:
  1690     064D  083B               	movf	___flmul@b+1,w
  1691     064E  00F0               	movwf	__Umul8_16@multiplicand
  1692     064F  0840               	movf	___flmul@a+2,w
  1693     0650  120A  158A  2795  120A  118A  	fcall	__Umul8_16
  1694     0655  0871               	movf	?__Umul8_16+1,w
  1695     0656  1283               	bcf	3,5	;RP0=0, select bank0
  1696     0657  1303               	bcf	3,6	;RP1=0, select bank0
  1697     0658  00D3               	movwf	___flmul@temp+1
  1698     0659  0870               	movf	?__Umul8_16,w
  1699     065A  00D2               	movwf	___flmul@temp
  1700     065B  0852               	movf	___flmul@temp,w
  1701     065C  00C2               	movwf	??___flmul
  1702     065D  0853               	movf	___flmul@temp+1,w
  1703     065E  00C3               	movwf	??___flmul+1
  1704     065F  01C4               	clrf	??___flmul+2
  1705     0660  01C5               	clrf	??___flmul+3
  1706     0661  0842               	movf	??___flmul,w
  1707     0662  07CE               	addwf	___flmul@prod,f
  1708     0663  0843               	movf	??___flmul+1,w
  1709     0664  1103               	clrz
  1710     0665  1803               	skipnc
  1711     0666  3E01               	addlw	1
  1712     0667  1903               	skipnz
  1713     0668  2E6A               	goto	u1851
  1714     0669  07CF               	addwf	___flmul@prod+1,f
  1715     066A                     u1851:
  1716     066A  0844               	movf	??___flmul+2,w
  1717     066B  1103               	clrz
  1718     066C  1803               	skipnc
  1719     066D  3E01               	addlw	1
  1720     066E  1903               	skipnz
  1721     066F  2E71               	goto	u1852
  1722     0670  07D0               	addwf	___flmul@prod+2,f
  1723     0671                     u1852:
  1724     0671  0845               	movf	??___flmul+3,w
  1725     0672  1103               	clrz
  1726     0673  1803               	skipnc
  1727     0674  3E01               	addlw	1
  1728     0675  1903               	skipnz
  1729     0676  2E78               	goto	u1853
  1730     0677  07D1               	addwf	___flmul@prod+3,f
  1731     0678                     u1853:
  1732     0678                     l1550:
  1733     0678  083C               	movf	___flmul@b+2,w
  1734     0679  00F0               	movwf	__Umul8_16@multiplicand
  1735     067A  083F               	movf	___flmul@a+1,w
  1736     067B  120A  158A  2795  120A  118A  	fcall	__Umul8_16
  1737     0680  0871               	movf	?__Umul8_16+1,w
  1738     0681  1283               	bcf	3,5	;RP0=0, select bank0
  1739     0682  1303               	bcf	3,6	;RP1=0, select bank0
  1740     0683  00D3               	movwf	___flmul@temp+1
  1741     0684  0870               	movf	?__Umul8_16,w
  1742     0685  00D2               	movwf	___flmul@temp
  1743     0686                     l1552:
  1744     0686  0852               	movf	___flmul@temp,w
  1745     0687  00C2               	movwf	??___flmul
  1746     0688  0853               	movf	___flmul@temp+1,w
  1747     0689  00C3               	movwf	??___flmul+1
  1748     068A  01C4               	clrf	??___flmul+2
  1749     068B  01C5               	clrf	??___flmul+3
  1750     068C  0842               	movf	??___flmul,w
  1751     068D  07CE               	addwf	___flmul@prod,f
  1752     068E  0843               	movf	??___flmul+1,w
  1753     068F  1103               	clrz
  1754     0690  1803               	skipnc
  1755     0691  3E01               	addlw	1
  1756     0692  1903               	skipnz
  1757     0693  2E95               	goto	u1861
  1758     0694  07CF               	addwf	___flmul@prod+1,f
  1759     0695                     u1861:
  1760     0695  0844               	movf	??___flmul+2,w
  1761     0696  1103               	clrz
  1762     0697  1803               	skipnc
  1763     0698  3E01               	addlw	1
  1764     0699  1903               	skipnz
  1765     069A  2E9C               	goto	u1862
  1766     069B  07D0               	addwf	___flmul@prod+2,f
  1767     069C                     u1862:
  1768     069C  0845               	movf	??___flmul+3,w
  1769     069D  1103               	clrz
  1770     069E  1803               	skipnc
  1771     069F  3E01               	addlw	1
  1772     06A0  1903               	skipnz
  1773     06A1  2EA3               	goto	u1863
  1774     06A2  07D1               	addwf	___flmul@prod+3,f
  1775     06A3                     u1863:
  1776     06A3  083C               	movf	___flmul@b+2,w
  1777     06A4  00F0               	movwf	__Umul8_16@multiplicand
  1778     06A5  0840               	movf	___flmul@a+2,w
  1779     06A6  120A  158A  2795  120A  118A  	fcall	__Umul8_16
  1780     06AB  0871               	movf	?__Umul8_16+1,w
  1781     06AC  1283               	bcf	3,5	;RP0=0, select bank0
  1782     06AD  1303               	bcf	3,6	;RP1=0, select bank0
  1783     06AE  00D3               	movwf	___flmul@temp+1
  1784     06AF  0870               	movf	?__Umul8_16,w
  1785     06B0  00D2               	movwf	___flmul@temp
  1786     06B1                     l1554:
  1787     06B1  0852               	movf	___flmul@temp,w
  1788     06B2  00C2               	movwf	??___flmul
  1789     06B3  0853               	movf	___flmul@temp+1,w
  1790     06B4  00C3               	movwf	??___flmul+1
  1791     06B5  01C4               	clrf	??___flmul+2
  1792     06B6  01C5               	clrf	??___flmul+3
  1793     06B7  3008               	movlw	8
  1794     06B8                     u1875:
  1795     06B8  1003               	clrc
  1796     06B9  0DC2               	rlf	??___flmul,f
  1797     06BA  0DC3               	rlf	??___flmul+1,f
  1798     06BB  0DC4               	rlf	??___flmul+2,f
  1799     06BC  0DC5               	rlf	??___flmul+3,f
  1800     06BD                     u1870:
  1801     06BD  3EFF               	addlw	-1
  1802     06BE  1D03               	skipz
  1803     06BF  2EB8               	goto	u1875
  1804     06C0  0842               	movf	??___flmul,w
  1805     06C1  07CE               	addwf	___flmul@prod,f
  1806     06C2  0843               	movf	??___flmul+1,w
  1807     06C3  1103               	clrz
  1808     06C4  1803               	skipnc
  1809     06C5  3E01               	addlw	1
  1810     06C6  1903               	skipnz
  1811     06C7  2EC9               	goto	u1881
  1812     06C8  07CF               	addwf	___flmul@prod+1,f
  1813     06C9                     u1881:
  1814     06C9  0844               	movf	??___flmul+2,w
  1815     06CA  1103               	clrz
  1816     06CB  1803               	skipnc
  1817     06CC  3E01               	addlw	1
  1818     06CD  1903               	skipnz
  1819     06CE  2ED0               	goto	u1882
  1820     06CF  07D0               	addwf	___flmul@prod+2,f
  1821     06D0                     u1882:
  1822     06D0  0845               	movf	??___flmul+3,w
  1823     06D1  1103               	clrz
  1824     06D2  1803               	skipnc
  1825     06D3  3E01               	addlw	1
  1826     06D4  1903               	skipnz
  1827     06D5  2ED7               	goto	u1883
  1828     06D6  07D1               	addwf	___flmul@prod+3,f
  1829     06D7                     u1883:
  1830     06D7                     l1556:
  1831     06D7  0848               	movf	___flmul@grs,w
  1832     06D8  00C2               	movwf	??___flmul
  1833     06D9  0849               	movf	___flmul@grs+1,w
  1834     06DA  00C3               	movwf	??___flmul+1
  1835     06DB  084A               	movf	___flmul@grs+2,w
  1836     06DC  00C4               	movwf	??___flmul+2
  1837     06DD  084B               	movf	___flmul@grs+3,w
  1838     06DE  00C5               	movwf	??___flmul+3
  1839     06DF  3018               	movlw	24
  1840     06E0                     u1895:
  1841     06E0  1003               	clrc
  1842     06E1  0CC5               	rrf	??___flmul+3,f
  1843     06E2  0CC4               	rrf	??___flmul+2,f
  1844     06E3  0CC3               	rrf	??___flmul+1,f
  1845     06E4  0CC2               	rrf	??___flmul,f
  1846     06E5                     u1890:
  1847     06E5  3EFF               	addlw	-1
  1848     06E6  1D03               	skipz
  1849     06E7  2EE0               	goto	u1895
  1850     06E8  0842               	movf	??___flmul,w
  1851     06E9  07CE               	addwf	___flmul@prod,f
  1852     06EA  0843               	movf	??___flmul+1,w
  1853     06EB  1103               	clrz
  1854     06EC  1803               	skipnc
  1855     06ED  3E01               	addlw	1
  1856     06EE  1903               	skipnz
  1857     06EF  2EF1               	goto	u1901
  1858     06F0  07CF               	addwf	___flmul@prod+1,f
  1859     06F1                     u1901:
  1860     06F1  0844               	movf	??___flmul+2,w
  1861     06F2  1103               	clrz
  1862     06F3  1803               	skipnc
  1863     06F4  3E01               	addlw	1
  1864     06F5  1903               	skipnz
  1865     06F6  2EF8               	goto	u1902
  1866     06F7  07D0               	addwf	___flmul@prod+2,f
  1867     06F8                     u1902:
  1868     06F8  0845               	movf	??___flmul+3,w
  1869     06F9  1103               	clrz
  1870     06FA  1803               	skipnc
  1871     06FB  3E01               	addlw	1
  1872     06FC  1903               	skipnz
  1873     06FD  2EFF               	goto	u1903
  1874     06FE  07D1               	addwf	___flmul@prod+3,f
  1875     06FF                     u1903:
  1876     06FF                     l1558:
  1877     06FF  3008               	movlw	8
  1878     0700  00C2               	movwf	??___flmul
  1879     0701                     u1915:
  1880     0701  1003               	clrc
  1881     0702  0DC8               	rlf	___flmul@grs,f
  1882     0703  0DC9               	rlf	___flmul@grs+1,f
  1883     0704  0DCA               	rlf	___flmul@grs+2,f
  1884     0705  0DCB               	rlf	___flmul@grs+3,f
  1885     0706  0BC2               	decfsz	??___flmul,f
  1886     0707  2F01               	goto	u1915
  1887     0708                     l1560:
  1888     0708  084D               	movf	___flmul@bexp,w
  1889     0709  074C               	addwf	___flmul@aexp,w
  1890     070A  00C2               	movwf	??___flmul
  1891     070B  01C3               	clrf	??___flmul+1
  1892     070C  0DC3               	rlf	??___flmul+1,f
  1893     070D  0842               	movf	??___flmul,w
  1894     070E  3E82               	addlw	130
  1895     070F  00D2               	movwf	___flmul@temp
  1896     0710  0843               	movf	??___flmul+1,w
  1897     0711  1803               	skipnc
  1898     0712  3E01               	addlw	1
  1899     0713  3EFF               	addlw	255
  1900     0714  00D3               	movwf	___flmul@temp+1
  1901     0715  2F33               	goto	l1572
  1902     0716                     l1562:
  1903     0716  3001               	movlw	1
  1904     0717  00C2               	movwf	??___flmul
  1905     0718                     u1925:
  1906     0718  1003               	clrc
  1907     0719  0DCE               	rlf	___flmul@prod,f
  1908     071A  0DCF               	rlf	___flmul@prod+1,f
  1909     071B  0DD0               	rlf	___flmul@prod+2,f
  1910     071C  0DD1               	rlf	___flmul@prod+3,f
  1911     071D  0BC2               	decfsz	??___flmul,f
  1912     071E  2F18               	goto	u1925
  1913     071F                     l1564:
  1914     071F  1FCB               	btfss	___flmul@grs+3,7
  1915     0720  2F22               	goto	u1931
  1916     0721  2F23               	goto	u1930
  1917     0722                     u1931:
  1918     0722  2F24               	goto	l1568
  1919     0723                     u1930:
  1920     0723                     l1566:
  1921     0723  144E               	bsf	___flmul@prod,0
  1922     0724                     l1568:
  1923     0724  3001               	movlw	1
  1924     0725  00C2               	movwf	??___flmul
  1925     0726                     u1945:
  1926     0726  1003               	clrc
  1927     0727  0DC8               	rlf	___flmul@grs,f
  1928     0728  0DC9               	rlf	___flmul@grs+1,f
  1929     0729  0DCA               	rlf	___flmul@grs+2,f
  1930     072A  0DCB               	rlf	___flmul@grs+3,f
  1931     072B  0BC2               	decfsz	??___flmul,f
  1932     072C  2F26               	goto	u1945
  1933     072D                     l1570:
  1934     072D  30FF               	movlw	255
  1935     072E  07D2               	addwf	___flmul@temp,f
  1936     072F  1803               	skipnc
  1937     0730  0AD3               	incf	___flmul@temp+1,f
  1938     0731  30FF               	movlw	255
  1939     0732  07D3               	addwf	___flmul@temp+1,f
  1940     0733                     l1572:
  1941     0733  1FD0               	btfss	___flmul@prod+2,7
  1942     0734  2F36               	goto	u1951
  1943     0735  2F37               	goto	u1950
  1944     0736                     u1951:
  1945     0736  2F16               	goto	l1562
  1946     0737                     u1950:
  1947     0737                     l1574:
  1948     0737  01CC               	clrf	___flmul@aexp
  1949     0738                     l1576:
  1950     0738  1FCB               	btfss	___flmul@grs+3,7
  1951     0739  2F3B               	goto	u1961
  1952     073A  2F3C               	goto	u1960
  1953     073B                     u1961:
  1954     073B  2F58               	goto	l1584
  1955     073C                     u1960:
  1956     073C                     l1578:
  1957     073C  30FF               	movlw	255
  1958     073D  0548               	andwf	___flmul@grs,w
  1959     073E  00C2               	movwf	??___flmul
  1960     073F  30FF               	movlw	255
  1961     0740  0549               	andwf	___flmul@grs+1,w
  1962     0741  00C3               	movwf	??___flmul+1
  1963     0742  30FF               	movlw	255
  1964     0743  054A               	andwf	___flmul@grs+2,w
  1965     0744  00C4               	movwf	??___flmul+2
  1966     0745  307F               	movlw	127
  1967     0746  054B               	andwf	___flmul@grs+3,w
  1968     0747  00C5               	movwf	??___flmul+3
  1969     0748  0845               	movf	??___flmul+3,w
  1970     0749  0444               	iorwf	??___flmul+2,w
  1971     074A  0443               	iorwf	??___flmul+1,w
  1972     074B  0442               	iorwf	??___flmul,w
  1973     074C  1903               	skipnz
  1974     074D  2F4F               	goto	u1971
  1975     074E  2F50               	goto	u1970
  1976     074F                     u1971:
  1977     074F  2F53               	goto	l545
  1978     0750                     u1970:
  1979     0750                     l1580:
  1980     0750  01CC               	clrf	___flmul@aexp
  1981     0751  0ACC               	incf	___flmul@aexp,f
  1982     0752  2F58               	goto	l1584
  1983     0753                     l545:
  1984     0753  1C4E               	btfss	___flmul@prod,0
  1985     0754  2F56               	goto	u1981
  1986     0755  2F57               	goto	u1980
  1987     0756                     u1981:
  1988     0756  2F58               	goto	l1584
  1989     0757                     u1980:
  1990     0757  2F50               	goto	l1580
  1991     0758                     l1584:
  1992     0758  084C               	movf	___flmul@aexp,w
  1993     0759  1903               	btfsc	3,2
  1994     075A  2F5C               	goto	u1991
  1995     075B  2F5D               	goto	u1990
  1996     075C                     u1991:
  1997     075C  2F8E               	goto	l1594
  1998     075D                     u1990:
  1999     075D                     l1586:
  2000     075D  3001               	movlw	1
  2001     075E  07CE               	addwf	___flmul@prod,f
  2002     075F  3000               	movlw	0
  2003     0760  1803               	skipnc
  2004     0761  3001               	movlw	1
  2005     0762  07CF               	addwf	___flmul@prod+1,f
  2006     0763  3000               	movlw	0
  2007     0764  1803               	skipnc
  2008     0765  3001               	movlw	1
  2009     0766  07D0               	addwf	___flmul@prod+2,f
  2010     0767  3000               	movlw	0
  2011     0768  1803               	skipnc
  2012     0769  3001               	movlw	1
  2013     076A  07D1               	addwf	___flmul@prod+3,f
  2014     076B                     l1588:
  2015     076B  1C51               	btfss	___flmul@prod+3,0
  2016     076C  2F6E               	goto	u2001
  2017     076D  2F6F               	goto	u2000
  2018     076E                     u2001:
  2019     076E  2F8E               	goto	l1594
  2020     076F                     u2000:
  2021     076F                     l1590:
  2022     076F  084E               	movf	___flmul@prod,w
  2023     0770  00C2               	movwf	??___flmul
  2024     0771  084F               	movf	___flmul@prod+1,w
  2025     0772  00C3               	movwf	??___flmul+1
  2026     0773  0850               	movf	___flmul@prod+2,w
  2027     0774  00C4               	movwf	??___flmul+2
  2028     0775  0851               	movf	___flmul@prod+3,w
  2029     0776  00C5               	movwf	??___flmul+3
  2030     0777  3001               	movlw	1
  2031     0778  00C6               	movwf	??___flmul+4
  2032     0779                     u2015:
  2033     0779  0D45               	rlf	??___flmul+3,w
  2034     077A  0CC5               	rrf	??___flmul+3,f
  2035     077B  0CC4               	rrf	??___flmul+2,f
  2036     077C  0CC3               	rrf	??___flmul+1,f
  2037     077D  0CC2               	rrf	??___flmul,f
  2038     077E                     u2010:
  2039     077E  0BC6               	decfsz	??___flmul+4,f
  2040     077F  2F79               	goto	u2015
  2041     0780  0845               	movf	??___flmul+3,w
  2042     0781  00D1               	movwf	___flmul@prod+3
  2043     0782  0844               	movf	??___flmul+2,w
  2044     0783  00D0               	movwf	___flmul@prod+2
  2045     0784  0843               	movf	??___flmul+1,w
  2046     0785  00CF               	movwf	___flmul@prod+1
  2047     0786  0842               	movf	??___flmul,w
  2048     0787  00CE               	movwf	___flmul@prod
  2049     0788                     l1592:
  2050     0788  3001               	movlw	1
  2051     0789  07D2               	addwf	___flmul@temp,f
  2052     078A  1803               	skipnc
  2053     078B  0AD3               	incf	___flmul@temp+1,f
  2054     078C  3000               	movlw	0
  2055     078D  07D3               	addwf	___flmul@temp+1,f
  2056     078E                     l1594:
  2057     078E  0853               	movf	___flmul@temp+1,w
  2058     078F  3A80               	xorlw	128
  2059     0790  00FF               	movwf	btemp+1
  2060     0791  3080               	movlw	128
  2061     0792  027F               	subwf	btemp+1,w
  2062     0793  1D03               	skipz
  2063     0794  2F97               	goto	u2025
  2064     0795  30FF               	movlw	255
  2065     0796  0252               	subwf	___flmul@temp,w
  2066     0797                     u2025:
  2067     0797  1C03               	skipc
  2068     0798  2F9A               	goto	u2021
  2069     0799  2F9B               	goto	u2020
  2070     079A                     u2021:
  2071     079A  2FA6               	goto	l1598
  2072     079B                     u2020:
  2073     079B                     l1596:
  2074     079B  307F               	movlw	127
  2075     079C  1283               	bcf	3,5	;RP0=0, select bank0
  2076     079D  1303               	bcf	3,6	;RP1=0, select bank0
  2077     079E  00D1               	movwf	___flmul@prod+3
  2078     079F  3080               	movlw	128
  2079     07A0  00D0               	movwf	___flmul@prod+2
  2080     07A1  3000               	movlw	0
  2081     07A2  00CF               	movwf	___flmul@prod+1
  2082     07A3  3000               	movlw	0
  2083     07A4  00CE               	movwf	___flmul@prod
  2084     07A5  2FD7               	goto	l1612
  2085     07A6                     l1598:
  2086     07A6  1283               	bcf	3,5	;RP0=0, select bank0
  2087     07A7  1303               	bcf	3,6	;RP1=0, select bank0
  2088     07A8  0853               	movf	___flmul@temp+1,w
  2089     07A9  3A80               	xorlw	128
  2090     07AA  00FF               	movwf	btemp+1
  2091     07AB  3080               	movlw	128
  2092     07AC  027F               	subwf	btemp+1,w
  2093     07AD  1D03               	skipz
  2094     07AE  2FB1               	goto	u2035
  2095     07AF  3001               	movlw	1
  2096     07B0  0252               	subwf	___flmul@temp,w
  2097     07B1                     u2035:
  2098     07B1  1803               	skipnc
  2099     07B2  2FB4               	goto	u2031
  2100     07B3  2FB5               	goto	u2030
  2101     07B4                     u2031:
  2102     07B4  2FC1               	goto	l1604
  2103     07B5                     u2030:
  2104     07B5                     l1600:
  2105     07B5  3000               	movlw	0
  2106     07B6  1283               	bcf	3,5	;RP0=0, select bank0
  2107     07B7  1303               	bcf	3,6	;RP1=0, select bank0
  2108     07B8  00D1               	movwf	___flmul@prod+3
  2109     07B9  3000               	movlw	0
  2110     07BA  00D0               	movwf	___flmul@prod+2
  2111     07BB  3000               	movlw	0
  2112     07BC  00CF               	movwf	___flmul@prod+1
  2113     07BD  3000               	movlw	0
  2114     07BE  00CE               	movwf	___flmul@prod
  2115     07BF                     l1602:
  2116     07BF  01C7               	clrf	___flmul@sign
  2117     07C0  2FD7               	goto	l1612
  2118     07C1                     l1604:
  2119     07C1  1283               	bcf	3,5	;RP0=0, select bank0
  2120     07C2  1303               	bcf	3,6	;RP1=0, select bank0
  2121     07C3  0852               	movf	___flmul@temp,w
  2122     07C4  00CD               	movwf	___flmul@bexp
  2123     07C5  30FF               	movlw	255
  2124     07C6  05CE               	andwf	___flmul@prod,f
  2125     07C7  30FF               	movlw	255
  2126     07C8  05CF               	andwf	___flmul@prod+1,f
  2127     07C9  307F               	movlw	127
  2128     07CA  05D0               	andwf	___flmul@prod+2,f
  2129     07CB  3000               	movlw	0
  2130     07CC  05D1               	andwf	___flmul@prod+3,f
  2131     07CD                     l1606:
  2132     07CD  1C4D               	btfss	___flmul@bexp,0
  2133     07CE  2FD0               	goto	u2041
  2134     07CF  2FD1               	goto	u2040
  2135     07D0                     u2041:
  2136     07D0  2FD2               	goto	l1610
  2137     07D1                     u2040:
  2138     07D1                     l1608:
  2139     07D1  17D0               	bsf	___flmul@prod+2,7
  2140     07D2                     l1610:
  2141     07D2  084D               	movf	___flmul@bexp,w
  2142     07D3  00C2               	movwf	??___flmul
  2143     07D4  1003               	clrc
  2144     07D5  0C42               	rrf	??___flmul,w
  2145     07D6  00D1               	movwf	___flmul@prod+3
  2146     07D7                     l1612:
  2147     07D7  0847               	movf	___flmul@sign,w
  2148     07D8  00FF               	movwf	btemp+1
  2149     07D9  087F               	movf	btemp+1,w
  2150     07DA  04D1               	iorwf	___flmul@prod+3,f
  2151     07DB                     l1614:
  2152     07DB  0851               	movf	___flmul@prod+3,w
  2153     07DC  00BD               	movwf	?___flmul+3
  2154     07DD  0850               	movf	___flmul@prod+2,w
  2155     07DE  00BC               	movwf	?___flmul+2
  2156     07DF  084F               	movf	___flmul@prod+1,w
  2157     07E0  00BB               	movwf	?___flmul+1
  2158     07E1  084E               	movf	___flmul@prod,w
  2159     07E2  00BA               	movwf	?___flmul
  2160     07E3                     l539:
  2161     07E3  0008               	return
  2162     07E4                     __end_of___flmul:
  2163                           
  2164                           	psect	text4
  2165     0F95                     __ptext4:	
  2166 ;; *************** function __Umul8_16 *****************
  2167 ;; Defined at:
  2168 ;;		line 4 in file "C:\Program Files\Microchip\xc8\v2.41\pic\sources\c90\common\Umul8_16.c"
  2169 ;; Parameters:    Size  Location     Type
  2170 ;;  multiplier      1    wreg     unsigned char 
  2171 ;;  multiplicand    1    0[COMMON] unsigned char 
  2172 ;; Auto vars:     Size  Location     Type
  2173 ;;  multiplier      1    8[COMMON] unsigned char 
  2174 ;;  word_mpld       2    6[COMMON] unsigned int 
  2175 ;;  product         2    4[COMMON] unsigned int 
  2176 ;; Return value:  Size  Location     Type
  2177 ;;                  2    0[COMMON] unsigned int 
  2178 ;; Registers used:
  2179 ;;		wreg, status,2, status,0
  2180 ;; Tracked objects:
  2181 ;;		On entry : 0/0
  2182 ;;		On exit  : 0/0
  2183 ;;		Unchanged: 0/0
  2184 ;; Data sizes:     COMMON   BANK0   BANK1   BANK3   BANK2
  2185 ;;      Params:         2       0       0       0       0
  2186 ;;      Locals:         5       0       0       0       0
  2187 ;;      Temps:          2       0       0       0       0
  2188 ;;      Totals:         9       0       0       0       0
  2189 ;;Total ram usage:        9 bytes
  2190 ;; Hardware stack levels used: 1
  2191 ;; This function calls:
  2192 ;;		Nothing
  2193 ;; This function is called by:
  2194 ;;		___flmul
  2195 ;; This function uses a non-reentrant model
  2196 ;;
  2197                           
  2198     0F95                     __Umul8_16:	
  2199                           ;psect for function __Umul8_16
  2200                           
  2201                           
  2202                           ;incstack = 0
  2203                           ; Regs used in __Umul8_16: [wreg+status,2+status,0]
  2204                           ;__Umul8_16@multiplier stored from wreg
  2205     0F95  00F8               	movwf	__Umul8_16@multiplier
  2206     0F96                     l1234:
  2207     0F96  01F4               	clrf	__Umul8_16@product
  2208     0F97  01F5               	clrf	__Umul8_16@product+1
  2209     0F98                     l1236:
  2210     0F98  0870               	movf	__Umul8_16@multiplicand,w
  2211     0F99  00F2               	movwf	??__Umul8_16
  2212     0F9A  01F3               	clrf	??__Umul8_16+1
  2213     0F9B  0872               	movf	??__Umul8_16,w
  2214     0F9C  00F6               	movwf	__Umul8_16@word_mpld
  2215     0F9D  0873               	movf	??__Umul8_16+1,w
  2216     0F9E  00F7               	movwf	__Umul8_16@word_mpld+1
  2217     0F9F                     l1238:
  2218     0F9F  1C78               	btfss	__Umul8_16@multiplier,0
  2219     0FA0  2FA2               	goto	u1241
  2220     0FA1  2FA3               	goto	u1240
  2221     0FA2                     u1241:
  2222     0FA2  2FA9               	goto	l558
  2223     0FA3                     u1240:
  2224     0FA3                     l1240:
  2225     0FA3  0876               	movf	__Umul8_16@word_mpld,w
  2226     0FA4  07F4               	addwf	__Umul8_16@product,f
  2227     0FA5  1803               	skipnc
  2228     0FA6  0AF5               	incf	__Umul8_16@product+1,f
  2229     0FA7  0877               	movf	__Umul8_16@word_mpld+1,w
  2230     0FA8  07F5               	addwf	__Umul8_16@product+1,f
  2231     0FA9                     l558:
  2232     0FA9  3001               	movlw	1
  2233     0FAA                     u1255:
  2234     0FAA  1003               	clrc
  2235     0FAB  0DF6               	rlf	__Umul8_16@word_mpld,f
  2236     0FAC  0DF7               	rlf	__Umul8_16@word_mpld+1,f
  2237     0FAD  3EFF               	addlw	-1
  2238     0FAE  1D03               	skipz
  2239     0FAF  2FAA               	goto	u1255
  2240     0FB0  1003               	clrc
  2241     0FB1  0CF8               	rrf	__Umul8_16@multiplier,f
  2242     0FB2                     l1242:
  2243     0FB2  0878               	movf	__Umul8_16@multiplier,w
  2244     0FB3  1D03               	btfss	3,2
  2245     0FB4  2FB6               	goto	u1261
  2246     0FB5  2FB7               	goto	u1260
  2247     0FB6                     u1261:
  2248     0FB6  2F9F               	goto	l1238
  2249     0FB7                     u1260:
  2250     0FB7                     l1244:
  2251     0FB7  0875               	movf	__Umul8_16@product+1,w
  2252     0FB8  00F1               	movwf	?__Umul8_16+1
  2253     0FB9  0874               	movf	__Umul8_16@product,w
  2254     0FBA  00F0               	movwf	?__Umul8_16
  2255     0FBB                     l560:
  2256     0FBB  0008               	return
  2257     0FBC                     __end_of__Umul8_16:
  2258                           
  2259                           	psect	text5
  2260     02D0                     __ptext5:	
  2261 ;; *************** function ___fldiv *****************
  2262 ;; Defined at:
  2263 ;;		line 8 in file "C:\Program Files\Microchip\xc8\v2.41\pic\sources\c90\common\sprcdiv.c"
  2264 ;; Parameters:    Size  Location     Type
  2265 ;;  a               4    0[BANK0 ] unsigned int 
  2266 ;;  b               4    4[BANK0 ] unsigned int 
  2267 ;; Auto vars:     Size  Location     Type
  2268 ;;  grs             4   20[BANK0 ] unsigned long 
  2269 ;;  rem             4   13[BANK0 ] unsigned long 
  2270 ;;  new_exp         2   18[BANK0 ] int 
  2271 ;;  aexp            1   25[BANK0 ] unsigned char 
  2272 ;;  bexp            1   24[BANK0 ] unsigned char 
  2273 ;;  sign            1   17[BANK0 ] unsigned char 
  2274 ;; Return value:  Size  Location     Type
  2275 ;;                  4    0[BANK0 ] unsigned char 
  2276 ;; Registers used:
  2277 ;;		wreg, status,2, status,0, btemp+1
  2278 ;; Tracked objects:
  2279 ;;		On entry : 0/0
  2280 ;;		On exit  : 0/0
  2281 ;;		Unchanged: 0/0
  2282 ;; Data sizes:     COMMON   BANK0   BANK1   BANK3   BANK2
  2283 ;;      Params:         0       8       0       0       0
  2284 ;;      Locals:         0      13       0       0       0
  2285 ;;      Temps:          0       5       0       0       0
  2286 ;;      Totals:         0      26       0       0       0
  2287 ;;Total ram usage:       26 bytes
  2288 ;; Hardware stack levels used: 1
  2289 ;; This function calls:
  2290 ;;		Nothing
  2291 ;; This function is called by:
  2292 ;;		_main
  2293 ;; This function uses a non-reentrant model
  2294 ;;
  2295                           
  2296     02D0                     ___fldiv:	
  2297                           ;psect for function ___fldiv
  2298                           
  2299     02D0                     l1330:	
  2300                           ;incstack = 0
  2301                           ; Regs used in ___fldiv: [wreg+status,2+status,0+btemp+1]
  2302                           
  2303     02D0  1283               	bcf	3,5	;RP0=0, select bank0
  2304     02D1  1303               	bcf	3,6	;RP1=0, select bank0
  2305     02D2  0827               	movf	___fldiv@b+3,w
  2306     02D3  3980               	andlw	128
  2307     02D4  00B1               	movwf	___fldiv@sign
  2308     02D5                     l1332:
  2309     02D5  0827               	movf	___fldiv@b+3,w
  2310     02D6  00A8               	movwf	??___fldiv
  2311     02D7  0728               	addwf	??___fldiv,w
  2312     02D8  00B8               	movwf	___fldiv@bexp
  2313     02D9                     l1334:
  2314     02D9  1FA6               	btfss	___fldiv@b+2,7
  2315     02DA  2ADC               	goto	u1391
  2316     02DB  2ADD               	goto	u1390
  2317     02DC                     u1391:
  2318     02DC  2ADE               	goto	l1338
  2319     02DD                     u1390:
  2320     02DD                     l1336:
  2321     02DD  1438               	bsf	___fldiv@bexp,0
  2322     02DE                     l1338:
  2323     02DE  0838               	movf	___fldiv@bexp,w
  2324     02DF  1903               	btfsc	3,2
  2325     02E0  2AE2               	goto	u1401
  2326     02E1  2AE3               	goto	u1400
  2327     02E2                     u1401:
  2328     02E2  2AF3               	goto	l1348
  2329     02E3                     u1400:
  2330     02E3                     l1340:
  2331     02E3  0A38               	incf	___fldiv@bexp,w
  2332     02E4  1D03               	btfss	3,2
  2333     02E5  2AE7               	goto	u1411
  2334     02E6  2AE8               	goto	u1410
  2335     02E7                     u1411:
  2336     02E7  2AF0               	goto	l1344
  2337     02E8                     u1410:
  2338     02E8                     l1342:
  2339     02E8  3000               	movlw	0
  2340     02E9  00A7               	movwf	___fldiv@b+3
  2341     02EA  3000               	movlw	0
  2342     02EB  00A6               	movwf	___fldiv@b+2
  2343     02EC  3000               	movlw	0
  2344     02ED  00A5               	movwf	___fldiv@b+1
  2345     02EE  3000               	movlw	0
  2346     02EF  00A4               	movwf	___fldiv@b
  2347     02F0                     l1344:
  2348     02F0  17A6               	bsf	___fldiv@b+2,7
  2349     02F1                     l1346:
  2350     02F1  01A7               	clrf	___fldiv@b+3
  2351     02F2  2AFB               	goto	l1350
  2352     02F3                     l1348:
  2353     02F3  3000               	movlw	0
  2354     02F4  00A7               	movwf	___fldiv@b+3
  2355     02F5  3000               	movlw	0
  2356     02F6  00A6               	movwf	___fldiv@b+2
  2357     02F7  3000               	movlw	0
  2358     02F8  00A5               	movwf	___fldiv@b+1
  2359     02F9  3000               	movlw	0
  2360     02FA  00A4               	movwf	___fldiv@b
  2361     02FB                     l1350:
  2362     02FB  0823               	movf	___fldiv@a+3,w
  2363     02FC  3980               	andlw	128
  2364     02FD  00FF               	movwf	btemp+1
  2365     02FE  087F               	movf	btemp+1,w
  2366     02FF  06B1               	xorwf	___fldiv@sign,f
  2367     0300                     l1352:
  2368     0300  0823               	movf	___fldiv@a+3,w
  2369     0301  00A8               	movwf	??___fldiv
  2370     0302  0728               	addwf	??___fldiv,w
  2371     0303  00B9               	movwf	___fldiv@aexp
  2372     0304                     l1354:
  2373     0304  1FA2               	btfss	___fldiv@a+2,7
  2374     0305  2B07               	goto	u1421
  2375     0306  2B08               	goto	u1420
  2376     0307                     u1421:
  2377     0307  2B09               	goto	l1358
  2378     0308                     u1420:
  2379     0308                     l1356:
  2380     0308  1439               	bsf	___fldiv@aexp,0
  2381     0309                     l1358:
  2382     0309  0839               	movf	___fldiv@aexp,w
  2383     030A  1903               	btfsc	3,2
  2384     030B  2B0D               	goto	u1431
  2385     030C  2B0E               	goto	u1430
  2386     030D                     u1431:
  2387     030D  2B1E               	goto	l1368
  2388     030E                     u1430:
  2389     030E                     l1360:
  2390     030E  0A39               	incf	___fldiv@aexp,w
  2391     030F  1D03               	btfss	3,2
  2392     0310  2B12               	goto	u1441
  2393     0311  2B13               	goto	u1440
  2394     0312                     u1441:
  2395     0312  2B1B               	goto	l1364
  2396     0313                     u1440:
  2397     0313                     l1362:
  2398     0313  3000               	movlw	0
  2399     0314  00A3               	movwf	___fldiv@a+3
  2400     0315  3000               	movlw	0
  2401     0316  00A2               	movwf	___fldiv@a+2
  2402     0317  3000               	movlw	0
  2403     0318  00A1               	movwf	___fldiv@a+1
  2404     0319  3000               	movlw	0
  2405     031A  00A0               	movwf	___fldiv@a
  2406     031B                     l1364:
  2407     031B  17A2               	bsf	___fldiv@a+2,7
  2408     031C                     l1366:
  2409     031C  01A3               	clrf	___fldiv@a+3
  2410     031D  2B26               	goto	l499
  2411     031E                     l1368:
  2412     031E  3000               	movlw	0
  2413     031F  00A3               	movwf	___fldiv@a+3
  2414     0320  3000               	movlw	0
  2415     0321  00A2               	movwf	___fldiv@a+2
  2416     0322  3000               	movlw	0
  2417     0323  00A1               	movwf	___fldiv@a+1
  2418     0324  3000               	movlw	0
  2419     0325  00A0               	movwf	___fldiv@a
  2420     0326                     l499:
  2421     0326  0823               	movf	___fldiv@a+3,w
  2422     0327  0422               	iorwf	___fldiv@a+2,w
  2423     0328  0421               	iorwf	___fldiv@a+1,w
  2424     0329  0420               	iorwf	___fldiv@a,w
  2425     032A  1D03               	skipz
  2426     032B  2B2D               	goto	u1451
  2427     032C  2B2E               	goto	u1450
  2428     032D                     u1451:
  2429     032D  2B47               	goto	l1378
  2430     032E                     u1450:
  2431     032E                     l1370:
  2432     032E  3000               	movlw	0
  2433     032F  00A7               	movwf	___fldiv@b+3
  2434     0330  3000               	movlw	0
  2435     0331  00A6               	movwf	___fldiv@b+2
  2436     0332  3000               	movlw	0
  2437     0333  00A5               	movwf	___fldiv@b+1
  2438     0334  3000               	movlw	0
  2439     0335  00A4               	movwf	___fldiv@b
  2440     0336  3080               	movlw	128
  2441     0337  04A6               	iorwf	___fldiv@b+2,f
  2442     0338  307F               	movlw	127
  2443     0339  04A7               	iorwf	___fldiv@b+3,f
  2444     033A                     l1372:
  2445     033A  0831               	movf	___fldiv@sign,w
  2446     033B  00FF               	movwf	btemp+1
  2447     033C  087F               	movf	btemp+1,w
  2448     033D  04A7               	iorwf	___fldiv@b+3,f
  2449     033E                     l1374:
  2450     033E  0827               	movf	___fldiv@b+3,w
  2451     033F  00A3               	movwf	?___fldiv+3
  2452     0340  0826               	movf	___fldiv@b+2,w
  2453     0341  00A2               	movwf	?___fldiv+2
  2454     0342  0825               	movf	___fldiv@b+1,w
  2455     0343  00A1               	movwf	?___fldiv+1
  2456     0344  0824               	movf	___fldiv@b,w
  2457     0345  00A0               	movwf	?___fldiv
  2458     0346  2C9E               	goto	l501
  2459     0347                     l1378:
  2460     0347  0838               	movf	___fldiv@bexp,w
  2461     0348  1D03               	btfss	3,2
  2462     0349  2B4B               	goto	u1461
  2463     034A  2B4C               	goto	u1460
  2464     034B                     u1461:
  2465     034B  2B55               	goto	l1384
  2466     034C                     u1460:
  2467     034C                     l1380:
  2468     034C  3000               	movlw	0
  2469     034D  00A3               	movwf	?___fldiv+3
  2470     034E  3000               	movlw	0
  2471     034F  00A2               	movwf	?___fldiv+2
  2472     0350  3000               	movlw	0
  2473     0351  00A1               	movwf	?___fldiv+1
  2474     0352  3000               	movlw	0
  2475     0353  00A0               	movwf	?___fldiv
  2476     0354  2C9E               	goto	l501
  2477     0355                     l1384:
  2478     0355  0838               	movf	___fldiv@bexp,w
  2479     0356  00A8               	movwf	??___fldiv
  2480     0357  01A9               	clrf	??___fldiv+1
  2481     0358  0829               	movf	??___fldiv+1,w
  2482     0359  00AB               	movwf	??___fldiv+3
  2483     035A  0839               	movf	___fldiv@aexp,w
  2484     035B  0228               	subwf	??___fldiv,w
  2485     035C  00AA               	movwf	??___fldiv+2
  2486     035D  1C03               	skipc
  2487     035E  03AB               	decf	??___fldiv+3,f
  2488     035F  082A               	movf	??___fldiv+2,w
  2489     0360  3E7F               	addlw	127
  2490     0361  00B2               	movwf	___fldiv@new_exp
  2491     0362  082B               	movf	??___fldiv+3,w
  2492     0363  1803               	skipnc
  2493     0364  3E01               	addlw	1
  2494     0365  3E00               	addlw	0
  2495     0366  00B3               	movwf	___fldiv@new_exp+1
  2496     0367                     l1386:
  2497     0367  0827               	movf	___fldiv@b+3,w
  2498     0368  00B0               	movwf	___fldiv@rem+3
  2499     0369  0826               	movf	___fldiv@b+2,w
  2500     036A  00AF               	movwf	___fldiv@rem+2
  2501     036B  0825               	movf	___fldiv@b+1,w
  2502     036C  00AE               	movwf	___fldiv@rem+1
  2503     036D  0824               	movf	___fldiv@b,w
  2504     036E  00AD               	movwf	___fldiv@rem
  2505     036F                     l1388:
  2506     036F  3000               	movlw	0
  2507     0370  00A7               	movwf	___fldiv@b+3
  2508     0371  3000               	movlw	0
  2509     0372  00A6               	movwf	___fldiv@b+2
  2510     0373  3000               	movlw	0
  2511     0374  00A5               	movwf	___fldiv@b+1
  2512     0375  3000               	movlw	0
  2513     0376  00A4               	movwf	___fldiv@b
  2514     0377                     l1390:
  2515     0377  3000               	movlw	0
  2516     0378  00B7               	movwf	___fldiv@grs+3
  2517     0379  3000               	movlw	0
  2518     037A  00B6               	movwf	___fldiv@grs+2
  2519     037B  3000               	movlw	0
  2520     037C  00B5               	movwf	___fldiv@grs+1
  2521     037D  3000               	movlw	0
  2522     037E  00B4               	movwf	___fldiv@grs
  2523     037F                     l1392:
  2524     037F  01B9               	clrf	___fldiv@aexp
  2525     0380  2BCB               	goto	l1412
  2526     0381                     l1394:
  2527     0381  0839               	movf	___fldiv@aexp,w
  2528     0382  1903               	btfsc	3,2
  2529     0383  2B85               	goto	u1471
  2530     0384  2B86               	goto	u1470
  2531     0385                     u1471:
  2532     0385  2BA6               	goto	l1404
  2533     0386                     u1470:
  2534     0386                     l1396:
  2535     0386  3001               	movlw	1
  2536     0387  00A8               	movwf	??___fldiv
  2537     0388                     u1485:
  2538     0388  1003               	clrc
  2539     0389  0DAD               	rlf	___fldiv@rem,f
  2540     038A  0DAE               	rlf	___fldiv@rem+1,f
  2541     038B  0DAF               	rlf	___fldiv@rem+2,f
  2542     038C  0DB0               	rlf	___fldiv@rem+3,f
  2543     038D  0BA8               	decfsz	??___fldiv,f
  2544     038E  2B88               	goto	u1485
  2545     038F  3001               	movlw	1
  2546     0390  00A8               	movwf	??___fldiv
  2547     0391                     u1495:
  2548     0391  1003               	clrc
  2549     0392  0DA4               	rlf	___fldiv@b,f
  2550     0393  0DA5               	rlf	___fldiv@b+1,f
  2551     0394  0DA6               	rlf	___fldiv@b+2,f
  2552     0395  0DA7               	rlf	___fldiv@b+3,f
  2553     0396  0BA8               	decfsz	??___fldiv,f
  2554     0397  2B91               	goto	u1495
  2555     0398                     l1398:
  2556     0398  1FB7               	btfss	___fldiv@grs+3,7
  2557     0399  2B9B               	goto	u1501
  2558     039A  2B9C               	goto	u1500
  2559     039B                     u1501:
  2560     039B  2B9D               	goto	l1402
  2561     039C                     u1500:
  2562     039C                     l1400:
  2563     039C  1424               	bsf	___fldiv@b,0
  2564     039D                     l1402:
  2565     039D  3001               	movlw	1
  2566     039E  00A8               	movwf	??___fldiv
  2567     039F                     u1515:
  2568     039F  1003               	clrc
  2569     03A0  0DB4               	rlf	___fldiv@grs,f
  2570     03A1  0DB5               	rlf	___fldiv@grs+1,f
  2571     03A2  0DB6               	rlf	___fldiv@grs+2,f
  2572     03A3  0DB7               	rlf	___fldiv@grs+3,f
  2573     03A4  0BA8               	decfsz	??___fldiv,f
  2574     03A5  2B9F               	goto	u1515
  2575     03A6                     l1404:
  2576     03A6  0823               	movf	___fldiv@a+3,w
  2577     03A7  0230               	subwf	___fldiv@rem+3,w
  2578     03A8  1D03               	skipz
  2579     03A9  2BB4               	goto	u1525
  2580     03AA  0822               	movf	___fldiv@a+2,w
  2581     03AB  022F               	subwf	___fldiv@rem+2,w
  2582     03AC  1D03               	skipz
  2583     03AD  2BB4               	goto	u1525
  2584     03AE  0821               	movf	___fldiv@a+1,w
  2585     03AF  022E               	subwf	___fldiv@rem+1,w
  2586     03B0  1D03               	skipz
  2587     03B1  2BB4               	goto	u1525
  2588     03B2  0820               	movf	___fldiv@a,w
  2589     03B3  022D               	subwf	___fldiv@rem,w
  2590     03B4                     u1525:
  2591     03B4  1C03               	skipc
  2592     03B5  2BB7               	goto	u1521
  2593     03B6  2BB8               	goto	u1520
  2594     03B7                     u1521:
  2595     03B7  2BC7               	goto	l1410
  2596     03B8                     u1520:
  2597     03B8                     l1406:
  2598     03B8  1737               	bsf	___fldiv@grs+3,6
  2599     03B9                     l1408:
  2600     03B9  0820               	movf	___fldiv@a,w
  2601     03BA  02AD               	subwf	___fldiv@rem,f
  2602     03BB  0821               	movf	___fldiv@a+1,w
  2603     03BC  1C03               	skipc
  2604     03BD  0F21               	incfsz	___fldiv@a+1,w
  2605     03BE  02AE               	subwf	___fldiv@rem+1,f
  2606     03BF  0822               	movf	___fldiv@a+2,w
  2607     03C0  1C03               	skipc
  2608     03C1  0F22               	incfsz	___fldiv@a+2,w
  2609     03C2  02AF               	subwf	___fldiv@rem+2,f
  2610     03C3  0823               	movf	___fldiv@a+3,w
  2611     03C4  1C03               	skipc
  2612     03C5  0F23               	incfsz	___fldiv@a+3,w
  2613     03C6  02B0               	subwf	___fldiv@rem+3,f
  2614     03C7                     l1410:
  2615     03C7  3001               	movlw	1
  2616     03C8  00FF               	movwf	btemp+1
  2617     03C9  087F               	movf	btemp+1,w
  2618     03CA  07B9               	addwf	___fldiv@aexp,f
  2619     03CB                     l1412:
  2620     03CB  301A               	movlw	26
  2621     03CC  0239               	subwf	___fldiv@aexp,w
  2622     03CD  1C03               	skipc
  2623     03CE  2BD0               	goto	u1531
  2624     03CF  2BD1               	goto	u1530
  2625     03D0                     u1531:
  2626     03D0  2B81               	goto	l1394
  2627     03D1                     u1530:
  2628     03D1                     l1414:
  2629     03D1  0830               	movf	___fldiv@rem+3,w
  2630     03D2  042F               	iorwf	___fldiv@rem+2,w
  2631     03D3  042E               	iorwf	___fldiv@rem+1,w
  2632     03D4  042D               	iorwf	___fldiv@rem,w
  2633     03D5  1903               	skipnz
  2634     03D6  2BD8               	goto	u1541
  2635     03D7  2BD9               	goto	u1540
  2636     03D8                     u1541:
  2637     03D8  2BF8               	goto	l1428
  2638     03D9                     u1540:
  2639     03D9                     l1416:
  2640     03D9  1434               	bsf	___fldiv@grs,0
  2641     03DA  2BF8               	goto	l1428
  2642     03DB                     l1418:
  2643     03DB  3001               	movlw	1
  2644     03DC  00A8               	movwf	??___fldiv
  2645     03DD                     u1555:
  2646     03DD  1003               	clrc
  2647     03DE  0DA4               	rlf	___fldiv@b,f
  2648     03DF  0DA5               	rlf	___fldiv@b+1,f
  2649     03E0  0DA6               	rlf	___fldiv@b+2,f
  2650     03E1  0DA7               	rlf	___fldiv@b+3,f
  2651     03E2  0BA8               	decfsz	??___fldiv,f
  2652     03E3  2BDD               	goto	u1555
  2653     03E4                     l1420:
  2654     03E4  1FB7               	btfss	___fldiv@grs+3,7
  2655     03E5  2BE7               	goto	u1561
  2656     03E6  2BE8               	goto	u1560
  2657     03E7                     u1561:
  2658     03E7  2BE9               	goto	l1424
  2659     03E8                     u1560:
  2660     03E8                     l1422:
  2661     03E8  1424               	bsf	___fldiv@b,0
  2662     03E9                     l1424:
  2663     03E9  3001               	movlw	1
  2664     03EA  00A8               	movwf	??___fldiv
  2665     03EB                     u1575:
  2666     03EB  1003               	clrc
  2667     03EC  0DB4               	rlf	___fldiv@grs,f
  2668     03ED  0DB5               	rlf	___fldiv@grs+1,f
  2669     03EE  0DB6               	rlf	___fldiv@grs+2,f
  2670     03EF  0DB7               	rlf	___fldiv@grs+3,f
  2671     03F0  0BA8               	decfsz	??___fldiv,f
  2672     03F1  2BEB               	goto	u1575
  2673     03F2                     l1426:
  2674     03F2  30FF               	movlw	255
  2675     03F3  07B2               	addwf	___fldiv@new_exp,f
  2676     03F4  1803               	skipnc
  2677     03F5  0AB3               	incf	___fldiv@new_exp+1,f
  2678     03F6  30FF               	movlw	255
  2679     03F7  07B3               	addwf	___fldiv@new_exp+1,f
  2680     03F8                     l1428:
  2681     03F8  1FA6               	btfss	___fldiv@b+2,7
  2682     03F9  2BFB               	goto	u1581
  2683     03FA  2BFC               	goto	u1580
  2684     03FB                     u1581:
  2685     03FB  2BDB               	goto	l1418
  2686     03FC                     u1580:
  2687     03FC                     l1430:
  2688     03FC  01B9               	clrf	___fldiv@aexp
  2689     03FD                     l1432:
  2690     03FD  1FB7               	btfss	___fldiv@grs+3,7
  2691     03FE  2C00               	goto	u1591
  2692     03FF  2C01               	goto	u1590
  2693     0400                     u1591:
  2694     0400  2C1D               	goto	l1440
  2695     0401                     u1590:
  2696     0401                     l1434:
  2697     0401  30FF               	movlw	255
  2698     0402  0534               	andwf	___fldiv@grs,w
  2699     0403  00A8               	movwf	??___fldiv
  2700     0404  30FF               	movlw	255
  2701     0405  0535               	andwf	___fldiv@grs+1,w
  2702     0406  00A9               	movwf	??___fldiv+1
  2703     0407  30FF               	movlw	255
  2704     0408  0536               	andwf	___fldiv@grs+2,w
  2705     0409  00AA               	movwf	??___fldiv+2
  2706     040A  307F               	movlw	127
  2707     040B  0537               	andwf	___fldiv@grs+3,w
  2708     040C  00AB               	movwf	??___fldiv+3
  2709     040D  082B               	movf	??___fldiv+3,w
  2710     040E  042A               	iorwf	??___fldiv+2,w
  2711     040F  0429               	iorwf	??___fldiv+1,w
  2712     0410  0428               	iorwf	??___fldiv,w
  2713     0411  1903               	skipnz
  2714     0412  2C14               	goto	u1601
  2715     0413  2C15               	goto	u1600
  2716     0414                     u1601:
  2717     0414  2C18               	goto	l515
  2718     0415                     u1600:
  2719     0415                     l1436:
  2720     0415  01B9               	clrf	___fldiv@aexp
  2721     0416  0AB9               	incf	___fldiv@aexp,f
  2722     0417  2C1D               	goto	l1440
  2723     0418                     l515:
  2724     0418  1C24               	btfss	___fldiv@b,0
  2725     0419  2C1B               	goto	u1611
  2726     041A  2C1C               	goto	u1610
  2727     041B                     u1611:
  2728     041B  2C1D               	goto	l1440
  2729     041C                     u1610:
  2730     041C  2C15               	goto	l1436
  2731     041D                     l1440:
  2732     041D  0839               	movf	___fldiv@aexp,w
  2733     041E  1903               	btfsc	3,2
  2734     041F  2C21               	goto	u1621
  2735     0420  2C22               	goto	u1620
  2736     0421                     u1621:
  2737     0421  2C53               	goto	l1450
  2738     0422                     u1620:
  2739     0422                     l1442:
  2740     0422  3001               	movlw	1
  2741     0423  07A4               	addwf	___fldiv@b,f
  2742     0424  3000               	movlw	0
  2743     0425  1803               	skipnc
  2744     0426  3001               	movlw	1
  2745     0427  07A5               	addwf	___fldiv@b+1,f
  2746     0428  3000               	movlw	0
  2747     0429  1803               	skipnc
  2748     042A  3001               	movlw	1
  2749     042B  07A6               	addwf	___fldiv@b+2,f
  2750     042C  3000               	movlw	0
  2751     042D  1803               	skipnc
  2752     042E  3001               	movlw	1
  2753     042F  07A7               	addwf	___fldiv@b+3,f
  2754     0430                     l1444:
  2755     0430  1C27               	btfss	___fldiv@b+3,0
  2756     0431  2C33               	goto	u1631
  2757     0432  2C34               	goto	u1630
  2758     0433                     u1631:
  2759     0433  2C53               	goto	l1450
  2760     0434                     u1630:
  2761     0434                     l1446:
  2762     0434  0824               	movf	___fldiv@b,w
  2763     0435  00A8               	movwf	??___fldiv
  2764     0436  0825               	movf	___fldiv@b+1,w
  2765     0437  00A9               	movwf	??___fldiv+1
  2766     0438  0826               	movf	___fldiv@b+2,w
  2767     0439  00AA               	movwf	??___fldiv+2
  2768     043A  0827               	movf	___fldiv@b+3,w
  2769     043B  00AB               	movwf	??___fldiv+3
  2770     043C  3001               	movlw	1
  2771     043D  00AC               	movwf	??___fldiv+4
  2772     043E                     u1645:
  2773     043E  0D2B               	rlf	??___fldiv+3,w
  2774     043F  0CAB               	rrf	??___fldiv+3,f
  2775     0440  0CAA               	rrf	??___fldiv+2,f
  2776     0441  0CA9               	rrf	??___fldiv+1,f
  2777     0442  0CA8               	rrf	??___fldiv,f
  2778     0443                     u1640:
  2779     0443  0BAC               	decfsz	??___fldiv+4,f
  2780     0444  2C3E               	goto	u1645
  2781     0445  082B               	movf	??___fldiv+3,w
  2782     0446  00A7               	movwf	___fldiv@b+3
  2783     0447  082A               	movf	??___fldiv+2,w
  2784     0448  00A6               	movwf	___fldiv@b+2
  2785     0449  0829               	movf	??___fldiv+1,w
  2786     044A  00A5               	movwf	___fldiv@b+1
  2787     044B  0828               	movf	??___fldiv,w
  2788     044C  00A4               	movwf	___fldiv@b
  2789     044D                     l1448:
  2790     044D  3001               	movlw	1
  2791     044E  07B2               	addwf	___fldiv@new_exp,f
  2792     044F  1803               	skipnc
  2793     0450  0AB3               	incf	___fldiv@new_exp+1,f
  2794     0451  3000               	movlw	0
  2795     0452  07B3               	addwf	___fldiv@new_exp+1,f
  2796     0453                     l1450:
  2797     0453  0833               	movf	___fldiv@new_exp+1,w
  2798     0454  3A80               	xorlw	128
  2799     0455  00FF               	movwf	btemp+1
  2800     0456  3080               	movlw	128
  2801     0457  027F               	subwf	btemp+1,w
  2802     0458  1D03               	skipz
  2803     0459  2C5C               	goto	u1655
  2804     045A  30FF               	movlw	255
  2805     045B  0232               	subwf	___fldiv@new_exp,w
  2806     045C                     u1655:
  2807     045C  1C03               	skipc
  2808     045D  2C5F               	goto	u1651
  2809     045E  2C60               	goto	u1650
  2810     045F                     u1651:
  2811     045F  2C6E               	goto	l1454
  2812     0460                     u1650:
  2813     0460                     l1452:
  2814     0460  30FF               	movlw	255
  2815     0461  1283               	bcf	3,5	;RP0=0, select bank0
  2816     0462  1303               	bcf	3,6	;RP1=0, select bank0
  2817     0463  00B2               	movwf	___fldiv@new_exp
  2818     0464  3000               	movlw	0
  2819     0465  00B3               	movwf	___fldiv@new_exp+1
  2820     0466  3000               	movlw	0
  2821     0467  00A7               	movwf	___fldiv@b+3
  2822     0468  3000               	movlw	0
  2823     0469  00A6               	movwf	___fldiv@b+2
  2824     046A  3000               	movlw	0
  2825     046B  00A5               	movwf	___fldiv@b+1
  2826     046C  3000               	movlw	0
  2827     046D  00A4               	movwf	___fldiv@b
  2828     046E                     l1454:
  2829     046E  1283               	bcf	3,5	;RP0=0, select bank0
  2830     046F  1303               	bcf	3,6	;RP1=0, select bank0
  2831     0470  0833               	movf	___fldiv@new_exp+1,w
  2832     0471  3A80               	xorlw	128
  2833     0472  00FF               	movwf	btemp+1
  2834     0473  3080               	movlw	128
  2835     0474  027F               	subwf	btemp+1,w
  2836     0475  1D03               	skipz
  2837     0476  2C79               	goto	u1665
  2838     0477  3001               	movlw	1
  2839     0478  0232               	subwf	___fldiv@new_exp,w
  2840     0479                     u1665:
  2841     0479  1803               	skipnc
  2842     047A  2C7C               	goto	u1661
  2843     047B  2C7D               	goto	u1660
  2844     047C                     u1661:
  2845     047C  2C8A               	goto	l521
  2846     047D                     u1660:
  2847     047D                     l1456:
  2848     047D  1283               	bcf	3,5	;RP0=0, select bank0
  2849     047E  1303               	bcf	3,6	;RP1=0, select bank0
  2850     047F  01B2               	clrf	___fldiv@new_exp
  2851     0480  01B3               	clrf	___fldiv@new_exp+1
  2852     0481                     l1458:
  2853     0481  3000               	movlw	0
  2854     0482  00A7               	movwf	___fldiv@b+3
  2855     0483  3000               	movlw	0
  2856     0484  00A6               	movwf	___fldiv@b+2
  2857     0485  3000               	movlw	0
  2858     0486  00A5               	movwf	___fldiv@b+1
  2859     0487  3000               	movlw	0
  2860     0488  00A4               	movwf	___fldiv@b
  2861     0489                     l1460:
  2862     0489  01B1               	clrf	___fldiv@sign
  2863     048A                     l521:
  2864     048A  1283               	bcf	3,5	;RP0=0, select bank0
  2865     048B  1303               	bcf	3,6	;RP1=0, select bank0
  2866     048C  0832               	movf	___fldiv@new_exp,w
  2867     048D  00B8               	movwf	___fldiv@bexp
  2868     048E                     l1462:
  2869     048E  1C38               	btfss	___fldiv@bexp,0
  2870     048F  2C91               	goto	u1671
  2871     0490  2C92               	goto	u1670
  2872     0491                     u1671:
  2873     0491  2C94               	goto	l1466
  2874     0492                     u1670:
  2875     0492                     l1464:
  2876     0492  17A6               	bsf	___fldiv@b+2,7
  2877     0493  2C98               	goto	l1468
  2878     0494                     l1466:
  2879     0494  307F               	movlw	127
  2880     0495  00FF               	movwf	btemp+1
  2881     0496  087F               	movf	btemp+1,w
  2882     0497  05A6               	andwf	___fldiv@b+2,f
  2883     0498                     l1468:
  2884     0498  0838               	movf	___fldiv@bexp,w
  2885     0499  00A8               	movwf	??___fldiv
  2886     049A  1003               	clrc
  2887     049B  0C28               	rrf	??___fldiv,w
  2888     049C  00A7               	movwf	___fldiv@b+3
  2889     049D  2B3A               	goto	l1372
  2890     049E                     l501:
  2891     049E  0008               	return
  2892     049F                     __end_of___fldiv:
  2893                           
  2894                           	psect	text6
  2895     0093                     __ptext6:	
  2896 ;; *************** function _Lcd_printing *****************
  2897 ;; Defined at:
  2898 ;;		line 77 in file "AtoD_100V.c"
  2899 ;; Parameters:    Size  Location     Type
  2900 ;;  value           2    7[COMMON] unsigned int 
  2901 ;; Auto vars:     Size  Location     Type
  2902 ;;  i               2    5[BANK0 ] int 
  2903 ;;  space           3    0[BANK0 ] unsigned char [3]
  2904 ;;  temp            2    3[BANK0 ] int 
  2905 ;; Return value:  Size  Location     Type
  2906 ;;                  1    wreg      void 
  2907 ;; Registers used:
  2908 ;;		wreg, fsr0l, fsr0h, status,2, status,0, btemp+1, pclath, cstack
  2909 ;; Tracked objects:
  2910 ;;		On entry : 0/0
  2911 ;;		On exit  : 0/0
  2912 ;;		Unchanged: 0/0
  2913 ;; Data sizes:     COMMON   BANK0   BANK1   BANK3   BANK2
  2914 ;;      Params:         2       0       0       0       0
  2915 ;;      Locals:         0       7       0       0       0
  2916 ;;      Temps:          0       0       0       0       0
  2917 ;;      Totals:         2       7       0       0       0
  2918 ;;Total ram usage:        9 bytes
  2919 ;; Hardware stack levels used: 1
  2920 ;; Hardware stack levels required when called: 1
  2921 ;; This function calls:
  2922 ;;		_Lcd_displaydata
  2923 ;;		___lwdiv
  2924 ;;		___lwmod
  2925 ;; This function is called by:
  2926 ;;		_main
  2927 ;; This function uses a non-reentrant model
  2928 ;;
  2929                           
  2930     0093                     _Lcd_printing:	
  2931                           ;psect for function _Lcd_printing
  2932                           
  2933     0093                     l1266:	
  2934                           ;incstack = 0
  2935                           ; Regs used in _Lcd_printing: [wreg-fsr0h+status,2+status,0+btemp+1+pclath+cstack]
  2936                           
  2937                           
  2938                           ;AtoD_100V.c: 78:     unsigned char space[3]="000";
  2939     0093  1283               	bcf	3,5	;RP0=0, select bank0
  2940     0094  1303               	bcf	3,6	;RP1=0, select bank0
  2941     0095  0868               	movf	Lcd_printing@F896,w
  2942     0096  00A0               	movwf	Lcd_printing@space
  2943     0097  0869               	movf	Lcd_printing@F896+1,w
  2944     0098  00A1               	movwf	Lcd_printing@space+1
  2945     0099  086A               	movf	Lcd_printing@F896+2,w
  2946     009A  00A2               	movwf	Lcd_printing@space+2
  2947     009B                     l1268:
  2948                           
  2949                           ;AtoD_100V.c: 79:     int temp=0;
  2950     009B  01A3               	clrf	Lcd_printing@temp
  2951     009C  01A4               	clrf	Lcd_printing@temp+1
  2952                           
  2953                           ;AtoD_100V.c: 80:     while(value!=0){
  2954     009D  28CF               	goto	l1276
  2955     009E                     l1270:
  2956                           
  2957                           ;AtoD_100V.c: 81:         space[temp]=48+(value%10);
  2958     009E  1283               	bcf	3,5	;RP0=0, select bank0
  2959     009F  1303               	bcf	3,6	;RP1=0, select bank0
  2960     00A0  0823               	movf	Lcd_printing@temp,w
  2961     00A1  3E20               	addlw	(low (Lcd_printing@space| 0))& (0+255)
  2962     00A2  0084               	movwf	4
  2963     00A3  300A               	movlw	10
  2964     00A4  00F0               	movwf	___lwmod@divisor
  2965     00A5  3000               	movlw	0
  2966     00A6  00F1               	movwf	___lwmod@divisor+1
  2967     00A7  0878               	movf	Lcd_printing@value+1,w
  2968     00A8  00F3               	movwf	___lwmod@dividend+1
  2969     00A9  0877               	movf	Lcd_printing@value,w
  2970     00AA  00F2               	movwf	___lwmod@dividend
  2971     00AB  120A  118A  200C  120A  118A  	fcall	___lwmod
  2972     00B0  0870               	movf	?___lwmod,w
  2973     00B1  3E30               	addlw	48
  2974     00B2  1383               	bcf	3,7	;select IRP bank0
  2975     00B3  0080               	movwf	0
  2976     00B4                     l1272:
  2977                           
  2978                           ;AtoD_100V.c: 82:         temp=temp+1;
  2979     00B4  1283               	bcf	3,5	;RP0=0, select bank0
  2980     00B5  1303               	bcf	3,6	;RP1=0, select bank0
  2981     00B6  0823               	movf	Lcd_printing@temp,w
  2982     00B7  3E01               	addlw	1
  2983     00B8  00A3               	movwf	Lcd_printing@temp
  2984     00B9  0824               	movf	Lcd_printing@temp+1,w
  2985     00BA  1803               	skipnc
  2986     00BB  3E01               	addlw	1
  2987     00BC  3E00               	addlw	0
  2988     00BD  00A4               	movwf	Lcd_printing@temp+1
  2989     00BE                     l1274:
  2990                           
  2991                           ;AtoD_100V.c: 83:         value/=10;
  2992     00BE  300A               	movlw	10
  2993     00BF  00F0               	movwf	___lwdiv@divisor
  2994     00C0  3000               	movlw	0
  2995     00C1  00F1               	movwf	___lwdiv@divisor+1
  2996     00C2  0878               	movf	Lcd_printing@value+1,w
  2997     00C3  00F3               	movwf	___lwdiv@dividend+1
  2998     00C4  0877               	movf	Lcd_printing@value,w
  2999     00C5  00F2               	movwf	___lwdiv@dividend
  3000     00C6  120A  158A  27BC  120A  118A  	fcall	___lwdiv
  3001     00CB  0871               	movf	?___lwdiv+1,w
  3002     00CC  00F8               	movwf	Lcd_printing@value+1
  3003     00CD  0870               	movf	?___lwdiv,w
  3004     00CE  00F7               	movwf	Lcd_printing@value
  3005     00CF                     l1276:
  3006                           
  3007                           ;AtoD_100V.c: 80:     while(value!=0){
  3008     00CF  0877               	movf	Lcd_printing@value,w
  3009     00D0  0478               	iorwf	Lcd_printing@value+1,w
  3010     00D1  1D03               	btfss	3,2
  3011     00D2  28D4               	goto	u1271
  3012     00D3  28D5               	goto	u1270
  3013     00D4                     u1271:
  3014     00D4  289E               	goto	l1270
  3015     00D5                     u1270:
  3016     00D5                     l1278:
  3017                           
  3018                           ;AtoD_100V.c: 86:     for(int i=2;i>=0;i--){
  3019     00D5  3002               	movlw	2
  3020     00D6  1283               	bcf	3,5	;RP0=0, select bank0
  3021     00D7  1303               	bcf	3,6	;RP1=0, select bank0
  3022     00D8  00A5               	movwf	Lcd_printing@i
  3023     00D9  3000               	movlw	0
  3024     00DA  00A6               	movwf	Lcd_printing@i+1
  3025     00DB                     l1284:
  3026                           
  3027                           ;AtoD_100V.c: 87:         Lcd_displaydata(space[i]);
  3028     00DB  0825               	movf	Lcd_printing@i,w
  3029     00DC  3E20               	addlw	(low (Lcd_printing@space| 0))& (0+255)
  3030     00DD  0084               	movwf	4
  3031     00DE  1383               	bcf	3,7	;select IRP bank0
  3032     00DF  0800               	movf	0,w
  3033     00E0  120A  158A  276A  120A  118A  	fcall	_Lcd_displaydata
  3034     00E5                     l1286:
  3035                           
  3036                           ;AtoD_100V.c: 89:     }Lcd_displaydata('V');
  3037     00E5  30FF               	movlw	255
  3038     00E6  1283               	bcf	3,5	;RP0=0, select bank0
  3039     00E7  1303               	bcf	3,6	;RP1=0, select bank0
  3040     00E8  07A5               	addwf	Lcd_printing@i,f
  3041     00E9  1803               	skipnc
  3042     00EA  0AA6               	incf	Lcd_printing@i+1,f
  3043     00EB  30FF               	movlw	255
  3044     00EC  07A6               	addwf	Lcd_printing@i+1,f
  3045     00ED                     l1288:
  3046     00ED  1FA6               	btfss	Lcd_printing@i+1,7
  3047     00EE  28F0               	goto	u1281
  3048     00EF  28F1               	goto	u1280
  3049     00F0                     u1281:
  3050     00F0  28DB               	goto	l1284
  3051     00F1                     u1280:
  3052     00F1                     l1290:
  3053     00F1  3056               	movlw	86
  3054     00F2  120A  158A  276A  120A  118A  	fcall	_Lcd_displaydata
  3055     00F7                     l64:
  3056     00F7  0008               	return
  3057     00F8                     __end_of_Lcd_printing:
  3058                           
  3059                           	psect	text7
  3060     000C                     __ptext7:	
  3061 ;; *************** function ___lwmod *****************
  3062 ;; Defined at:
  3063 ;;		line 5 in file "C:\Program Files\Microchip\xc8\v2.41\pic\sources\c90\common\lwmod.c"
  3064 ;; Parameters:    Size  Location     Type
  3065 ;;  divisor         2    0[COMMON] unsigned int 
  3066 ;;  dividend        2    2[COMMON] unsigned int 
  3067 ;; Auto vars:     Size  Location     Type
  3068 ;;  counter         1    4[COMMON] unsigned char 
  3069 ;; Return value:  Size  Location     Type
  3070 ;;                  2    0[COMMON] unsigned int 
  3071 ;; Registers used:
  3072 ;;		wreg, status,2, status,0, btemp+1
  3073 ;; Tracked objects:
  3074 ;;		On entry : 0/0
  3075 ;;		On exit  : 0/0
  3076 ;;		Unchanged: 0/0
  3077 ;; Data sizes:     COMMON   BANK0   BANK1   BANK3   BANK2
  3078 ;;      Params:         4       0       0       0       0
  3079 ;;      Locals:         1       0       0       0       0
  3080 ;;      Temps:          0       0       0       0       0
  3081 ;;      Totals:         5       0       0       0       0
  3082 ;;Total ram usage:        5 bytes
  3083 ;; Hardware stack levels used: 1
  3084 ;; This function calls:
  3085 ;;		Nothing
  3086 ;; This function is called by:
  3087 ;;		_Lcd_printing
  3088 ;; This function uses a non-reentrant model
  3089 ;;
  3090                           
  3091     000C                     ___lwmod:	
  3092                           ;psect for function ___lwmod
  3093                           
  3094     000C                     l1212:	
  3095                           ;incstack = 0
  3096                           ; Regs used in ___lwmod: [wreg+status,2+status,0+btemp+1]
  3097                           
  3098     000C  0870               	movf	___lwmod@divisor,w
  3099     000D  0471               	iorwf	___lwmod@divisor+1,w
  3100     000E  1903               	btfsc	3,2
  3101     000F  2811               	goto	u1181
  3102     0010  2812               	goto	u1180
  3103     0011                     u1181:
  3104     0011  2841               	goto	l1230
  3105     0012                     u1180:
  3106     0012                     l1214:
  3107     0012  01F4               	clrf	___lwmod@counter
  3108     0013  0AF4               	incf	___lwmod@counter,f
  3109     0014  2820               	goto	l1220
  3110     0015                     l1216:
  3111     0015  3001               	movlw	1
  3112     0016                     u1195:
  3113     0016  1003               	clrc
  3114     0017  0DF0               	rlf	___lwmod@divisor,f
  3115     0018  0DF1               	rlf	___lwmod@divisor+1,f
  3116     0019  3EFF               	addlw	-1
  3117     001A  1D03               	skipz
  3118     001B  2816               	goto	u1195
  3119     001C                     l1218:
  3120     001C  3001               	movlw	1
  3121     001D  00FF               	movwf	btemp+1
  3122     001E  087F               	movf	btemp+1,w
  3123     001F  07F4               	addwf	___lwmod@counter,f
  3124     0020                     l1220:
  3125     0020  1FF1               	btfss	___lwmod@divisor+1,7
  3126     0021  2823               	goto	u1201
  3127     0022  2824               	goto	u1200
  3128     0023                     u1201:
  3129     0023  2815               	goto	l1216
  3130     0024                     u1200:
  3131     0024                     l1222:
  3132     0024  0871               	movf	___lwmod@divisor+1,w
  3133     0025  0273               	subwf	___lwmod@dividend+1,w
  3134     0026  1D03               	skipz
  3135     0027  282A               	goto	u1215
  3136     0028  0870               	movf	___lwmod@divisor,w
  3137     0029  0272               	subwf	___lwmod@dividend,w
  3138     002A                     u1215:
  3139     002A  1C03               	skipc
  3140     002B  282D               	goto	u1211
  3141     002C  282E               	goto	u1210
  3142     002D                     u1211:
  3143     002D  2834               	goto	l1226
  3144     002E                     u1210:
  3145     002E                     l1224:
  3146     002E  0870               	movf	___lwmod@divisor,w
  3147     002F  02F2               	subwf	___lwmod@dividend,f
  3148     0030  0871               	movf	___lwmod@divisor+1,w
  3149     0031  1C03               	skipc
  3150     0032  03F3               	decf	___lwmod@dividend+1,f
  3151     0033  02F3               	subwf	___lwmod@dividend+1,f
  3152     0034                     l1226:
  3153     0034  3001               	movlw	1
  3154     0035                     u1225:
  3155     0035  1003               	clrc
  3156     0036  0CF1               	rrf	___lwmod@divisor+1,f
  3157     0037  0CF0               	rrf	___lwmod@divisor,f
  3158     0038  3EFF               	addlw	-1
  3159     0039  1D03               	skipz
  3160     003A  2835               	goto	u1225
  3161     003B                     l1228:
  3162     003B  3001               	movlw	1
  3163     003C  02F4               	subwf	___lwmod@counter,f
  3164     003D  1D03               	btfss	3,2
  3165     003E  2840               	goto	u1231
  3166     003F  2841               	goto	u1230
  3167     0040                     u1231:
  3168     0040  2824               	goto	l1222
  3169     0041                     u1230:
  3170     0041                     l1230:
  3171     0041  0873               	movf	___lwmod@dividend+1,w
  3172     0042  00F1               	movwf	?___lwmod+1
  3173     0043  0872               	movf	___lwmod@dividend,w
  3174     0044  00F0               	movwf	?___lwmod
  3175     0045                     l432:
  3176     0045  0008               	return
  3177     0046                     __end_of___lwmod:
  3178                           
  3179                           	psect	text8
  3180     0FBC                     __ptext8:	
  3181 ;; *************** function ___lwdiv *****************
  3182 ;; Defined at:
  3183 ;;		line 5 in file "C:\Program Files\Microchip\xc8\v2.41\pic\sources\c90\common\lwdiv.c"
  3184 ;; Parameters:    Size  Location     Type
  3185 ;;  divisor         2    0[COMMON] unsigned int 
  3186 ;;  dividend        2    2[COMMON] unsigned int 
  3187 ;; Auto vars:     Size  Location     Type
  3188 ;;  quotient        2    4[COMMON] unsigned int 
  3189 ;;  counter         1    6[COMMON] unsigned char 
  3190 ;; Return value:  Size  Location     Type
  3191 ;;                  2    0[COMMON] unsigned int 
  3192 ;; Registers used:
  3193 ;;		wreg, status,2, status,0, btemp+1
  3194 ;; Tracked objects:
  3195 ;;		On entry : 0/0
  3196 ;;		On exit  : 0/0
  3197 ;;		Unchanged: 0/0
  3198 ;; Data sizes:     COMMON   BANK0   BANK1   BANK3   BANK2
  3199 ;;      Params:         4       0       0       0       0
  3200 ;;      Locals:         3       0       0       0       0
  3201 ;;      Temps:          0       0       0       0       0
  3202 ;;      Totals:         7       0       0       0       0
  3203 ;;Total ram usage:        7 bytes
  3204 ;; Hardware stack levels used: 1
  3205 ;; This function calls:
  3206 ;;		Nothing
  3207 ;; This function is called by:
  3208 ;;		_Lcd_printing
  3209 ;; This function uses a non-reentrant model
  3210 ;;
  3211                           
  3212     0FBC                     ___lwdiv:	
  3213                           ;psect for function ___lwdiv
  3214                           
  3215     0FBC                     l1186:	
  3216                           ;incstack = 0
  3217                           ; Regs used in ___lwdiv: [wreg+status,2+status,0+btemp+1]
  3218                           
  3219     0FBC  01F4               	clrf	___lwdiv@quotient
  3220     0FBD  01F5               	clrf	___lwdiv@quotient+1
  3221     0FBE                     l1188:
  3222     0FBE  0870               	movf	___lwdiv@divisor,w
  3223     0FBF  0471               	iorwf	___lwdiv@divisor+1,w
  3224     0FC0  1903               	btfsc	3,2
  3225     0FC1  2FC3               	goto	u1111
  3226     0FC2  2FC4               	goto	u1110
  3227     0FC3                     u1111:
  3228     0FC3  2FFB               	goto	l1208
  3229     0FC4                     u1110:
  3230     0FC4                     l1190:
  3231     0FC4  01F6               	clrf	___lwdiv@counter
  3232     0FC5  0AF6               	incf	___lwdiv@counter,f
  3233     0FC6  2FD2               	goto	l1196
  3234     0FC7                     l1192:
  3235     0FC7  3001               	movlw	1
  3236     0FC8                     u1125:
  3237     0FC8  1003               	clrc
  3238     0FC9  0DF0               	rlf	___lwdiv@divisor,f
  3239     0FCA  0DF1               	rlf	___lwdiv@divisor+1,f
  3240     0FCB  3EFF               	addlw	-1
  3241     0FCC  1D03               	skipz
  3242     0FCD  2FC8               	goto	u1125
  3243     0FCE                     l1194:
  3244     0FCE  3001               	movlw	1
  3245     0FCF  00FF               	movwf	btemp+1
  3246     0FD0  087F               	movf	btemp+1,w
  3247     0FD1  07F6               	addwf	___lwdiv@counter,f
  3248     0FD2                     l1196:
  3249     0FD2  1FF1               	btfss	___lwdiv@divisor+1,7
  3250     0FD3  2FD5               	goto	u1131
  3251     0FD4  2FD6               	goto	u1130
  3252     0FD5                     u1131:
  3253     0FD5  2FC7               	goto	l1192
  3254     0FD6                     u1130:
  3255     0FD6                     l1198:
  3256     0FD6  3001               	movlw	1
  3257     0FD7                     u1145:
  3258     0FD7  1003               	clrc
  3259     0FD8  0DF4               	rlf	___lwdiv@quotient,f
  3260     0FD9  0DF5               	rlf	___lwdiv@quotient+1,f
  3261     0FDA  3EFF               	addlw	-1
  3262     0FDB  1D03               	skipz
  3263     0FDC  2FD7               	goto	u1145
  3264     0FDD  0871               	movf	___lwdiv@divisor+1,w
  3265     0FDE  0273               	subwf	___lwdiv@dividend+1,w
  3266     0FDF  1D03               	skipz
  3267     0FE0  2FE3               	goto	u1155
  3268     0FE1  0870               	movf	___lwdiv@divisor,w
  3269     0FE2  0272               	subwf	___lwdiv@dividend,w
  3270     0FE3                     u1155:
  3271     0FE3  1C03               	skipc
  3272     0FE4  2FE6               	goto	u1151
  3273     0FE5  2FE7               	goto	u1150
  3274     0FE6                     u1151:
  3275     0FE6  2FEE               	goto	l1204
  3276     0FE7                     u1150:
  3277     0FE7                     l1200:
  3278     0FE7  0870               	movf	___lwdiv@divisor,w
  3279     0FE8  02F2               	subwf	___lwdiv@dividend,f
  3280     0FE9  0871               	movf	___lwdiv@divisor+1,w
  3281     0FEA  1C03               	skipc
  3282     0FEB  03F3               	decf	___lwdiv@dividend+1,f
  3283     0FEC  02F3               	subwf	___lwdiv@dividend+1,f
  3284     0FED                     l1202:
  3285     0FED  1474               	bsf	___lwdiv@quotient,0
  3286     0FEE                     l1204:
  3287     0FEE  3001               	movlw	1
  3288     0FEF                     u1165:
  3289     0FEF  1003               	clrc
  3290     0FF0  0CF1               	rrf	___lwdiv@divisor+1,f
  3291     0FF1  0CF0               	rrf	___lwdiv@divisor,f
  3292     0FF2  3EFF               	addlw	-1
  3293     0FF3  1D03               	skipz
  3294     0FF4  2FEF               	goto	u1165
  3295     0FF5                     l1206:
  3296     0FF5  3001               	movlw	1
  3297     0FF6  02F6               	subwf	___lwdiv@counter,f
  3298     0FF7  1D03               	btfss	3,2
  3299     0FF8  2FFA               	goto	u1171
  3300     0FF9  2FFB               	goto	u1170
  3301     0FFA                     u1171:
  3302     0FFA  2FD6               	goto	l1198
  3303     0FFB                     u1170:
  3304     0FFB                     l1208:
  3305     0FFB  0875               	movf	___lwdiv@quotient+1,w
  3306     0FFC  00F1               	movwf	?___lwdiv+1
  3307     0FFD  0874               	movf	___lwdiv@quotient,w
  3308     0FFE  00F0               	movwf	?___lwdiv
  3309     0FFF                     l422:
  3310     0FFF  0008               	return
  3311     1000                     __end_of___lwdiv:
  3312                           
  3313                           	psect	text9
  3314     0046                     __ptext9:	
  3315 ;; *************** function _Configuration *****************
  3316 ;; Defined at:
  3317 ;;		line 43 in file "AtoD_100V.c"
  3318 ;; Parameters:    Size  Location     Type
  3319 ;;		None
  3320 ;; Auto vars:     Size  Location     Type
  3321 ;;		None
  3322 ;; Return value:  Size  Location     Type
  3323 ;;                  1    wreg      void 
  3324 ;; Registers used:
  3325 ;;		wreg, status,2, status,0, btemp+1, pclath, cstack
  3326 ;; Tracked objects:
  3327 ;;		On entry : 0/0
  3328 ;;		On exit  : 0/0
  3329 ;;		Unchanged: 0/0
  3330 ;; Data sizes:     COMMON   BANK0   BANK1   BANK3   BANK2
  3331 ;;      Params:         0       0       0       0       0
  3332 ;;      Locals:         0       0       0       0       0
  3333 ;;      Temps:          2       0       0       0       0
  3334 ;;      Totals:         2       0       0       0       0
  3335 ;;Total ram usage:        2 bytes
  3336 ;; Hardware stack levels used: 1
  3337 ;; Hardware stack levels required when called: 1
  3338 ;; This function calls:
  3339 ;;		_Lcd_command
  3340 ;;		_Lcd_displaydata
  3341 ;; This function is called by:
  3342 ;;		_main
  3343 ;; This function uses a non-reentrant model
  3344 ;;
  3345                           
  3346     0046                     _Configuration:	
  3347                           ;psect for function _Configuration
  3348                           
  3349     0046                     l1248:	
  3350                           ;incstack = 0
  3351                           ; Regs used in _Configuration: [wreg+status,2+status,0+btemp+1+pclath+cstack]
  3352                           
  3353                           
  3354                           ;AtoD_100V.c: 44:     TRISA=0x04;
  3355     0046  3004               	movlw	4
  3356     0047  1683               	bsf	3,5	;RP0=1, select bank1
  3357     0048  1303               	bcf	3,6	;RP1=0, select bank1
  3358     0049  0085               	movwf	5	;volatile
  3359     004A                     l1250:
  3360                           
  3361                           ;AtoD_100V.c: 45:     TRISC=0x00;
  3362     004A  0187               	clrf	7	;volatile
  3363     004B                     l1252:
  3364                           
  3365                           ;AtoD_100V.c: 46:     TRISD=0x00;
  3366     004B  0188               	clrf	8	;volatile
  3367                           
  3368                           ;AtoD_100V.c: 47:     ADCON0=0x91;
  3369     004C  3091               	movlw	145
  3370     004D  1283               	bcf	3,5	;RP0=0, select bank0
  3371     004E  1303               	bcf	3,6	;RP1=0, select bank0
  3372     004F  009F               	movwf	31	;volatile
  3373                           
  3374                           ;AtoD_100V.c: 48:     ADCON1=0x02;
  3375     0050  3002               	movlw	2
  3376     0051  1683               	bsf	3,5	;RP0=1, select bank1
  3377     0052  1303               	bcf	3,6	;RP1=0, select bank1
  3378     0053  009F               	movwf	31	;volatile
  3379     0054                     l1254:
  3380                           
  3381                           ;AtoD_100V.c: 49:     Lcd_command(0x38);
  3382     0054  3038               	movlw	56
  3383     0055  120A  158A  277E  120A  118A  	fcall	_Lcd_command
  3384     005A                     l1256:
  3385                           
  3386                           ;AtoD_100V.c: 50:     _delay((unsigned long)((100)*(6000000/4000.0)));
  3387     005A  30C3               	movlw	195
  3388     005B  00F4               	movwf	??_Configuration+1
  3389     005C  30CD               	movlw	205
  3390     005D  00F3               	movwf	??_Configuration
  3391     005E                     u2227:
  3392     005E  0BF3               	decfsz	??_Configuration,f
  3393     005F  285E               	goto	u2227
  3394     0060  0BF4               	decfsz	??_Configuration+1,f
  3395     0061  285E               	goto	u2227
  3396                           
  3397                           ;AtoD_100V.c: 51:      Lcd_command(0x01);
  3398     0062  3001               	movlw	1
  3399     0063  120A  158A  277E  120A  118A  	fcall	_Lcd_command
  3400     0068                     l1258:
  3401                           
  3402                           ;AtoD_100V.c: 52:     _delay((unsigned long)((100)*(6000000/4000.0)));
  3403     0068  30C3               	movlw	195
  3404     0069  00F4               	movwf	??_Configuration+1
  3405     006A  30CD               	movlw	205
  3406     006B  00F3               	movwf	??_Configuration
  3407     006C                     u2237:
  3408     006C  0BF3               	decfsz	??_Configuration,f
  3409     006D  286C               	goto	u2237
  3410     006E  0BF4               	decfsz	??_Configuration+1,f
  3411     006F  286C               	goto	u2237
  3412     0070                     l1260:
  3413                           
  3414                           ;AtoD_100V.c: 53:      Lcd_command(0x06);
  3415     0070  3006               	movlw	6
  3416     0071  120A  158A  277E  120A  118A  	fcall	_Lcd_command
  3417                           
  3418                           ;AtoD_100V.c: 54:     _delay((unsigned long)((100)*(6000000/4000.0)));
  3419     0076  30C3               	movlw	195
  3420     0077  00F4               	movwf	??_Configuration+1
  3421     0078  30CD               	movlw	205
  3422     0079  00F3               	movwf	??_Configuration
  3423     007A                     u2247:
  3424     007A  0BF3               	decfsz	??_Configuration,f
  3425     007B  287A               	goto	u2247
  3426     007C  0BF4               	decfsz	??_Configuration+1,f
  3427     007D  287A               	goto	u2247
  3428     007E                     l1262:
  3429                           
  3430                           ;AtoD_100V.c: 55:      Lcd_command(0x0C);
  3431     007E  300C               	movlw	12
  3432     007F  120A  158A  277E  120A  118A  	fcall	_Lcd_command
  3433     0084                     l1264:
  3434                           
  3435                           ;AtoD_100V.c: 56:     _delay((unsigned long)((100)*(6000000/4000.0)));
  3436     0084  30C3               	movlw	195
  3437     0085  00F4               	movwf	??_Configuration+1
  3438     0086  30CD               	movlw	205
  3439     0087  00F3               	movwf	??_Configuration
  3440     0088                     u2257:
  3441     0088  0BF3               	decfsz	??_Configuration,f
  3442     0089  2888               	goto	u2257
  3443     008A  0BF4               	decfsz	??_Configuration+1,f
  3444     008B  2888               	goto	u2257
  3445                           
  3446                           ;AtoD_100V.c: 57:     Lcd_displaydata(0x80);
  3447     008C  3080               	movlw	128
  3448     008D  120A  158A  276A  120A  118A  	fcall	_Lcd_displaydata
  3449     0092                     l48:
  3450     0092  0008               	return
  3451     0093                     __end_of_Configuration:
  3452                           
  3453                           	psect	text10
  3454     0F6A                     __ptext10:	
  3455 ;; *************** function _Lcd_displaydata *****************
  3456 ;; Defined at:
  3457 ;;		line 62 in file "AtoD_100V.c"
  3458 ;; Parameters:    Size  Location     Type
  3459 ;;  data            1    wreg     unsigned char 
  3460 ;; Auto vars:     Size  Location     Type
  3461 ;;  data            1    2[COMMON] unsigned char 
  3462 ;; Return value:  Size  Location     Type
  3463 ;;                  1    wreg      void 
  3464 ;; Registers used:
  3465 ;;		wreg, status,2, status,0, btemp+1
  3466 ;; Tracked objects:
  3467 ;;		On entry : 0/0
  3468 ;;		On exit  : 0/0
  3469 ;;		Unchanged: 0/0
  3470 ;; Data sizes:     COMMON   BANK0   BANK1   BANK3   BANK2
  3471 ;;      Params:         0       0       0       0       0
  3472 ;;      Locals:         1       0       0       0       0
  3473 ;;      Temps:          2       0       0       0       0
  3474 ;;      Totals:         3       0       0       0       0
  3475 ;;Total ram usage:        3 bytes
  3476 ;; Hardware stack levels used: 1
  3477 ;; This function calls:
  3478 ;;		Nothing
  3479 ;; This function is called by:
  3480 ;;		_Configuration
  3481 ;;		_Lcd_printing
  3482 ;; This function uses a non-reentrant model
  3483 ;;
  3484                           
  3485     0F6A                     _Lcd_displaydata:	
  3486                           ;psect for function _Lcd_displaydata
  3487                           
  3488                           
  3489                           ;incstack = 0
  3490                           ; Regs used in _Lcd_displaydata: [wreg+status,2+status,0+btemp+1]
  3491                           ;Lcd_displaydata@data stored from wreg
  3492     0F6A  00F2               	movwf	Lcd_displaydata@data
  3493     0F6B                     l1176:
  3494                           
  3495                           ;AtoD_100V.c: 63:     PORTC |=0x08;
  3496     0F6B  1283               	bcf	3,5	;RP0=0, select bank0
  3497     0F6C  1303               	bcf	3,6	;RP1=0, select bank0
  3498     0F6D  1587               	bsf	7,3	;volatile
  3499     0F6E                     l1178:
  3500                           
  3501                           ;AtoD_100V.c: 64:     PORTD=data;
  3502     0F6E  0872               	movf	Lcd_displaydata@data,w
  3503     0F6F  0088               	movwf	8	;volatile
  3504     0F70                     l1180:
  3505                           
  3506                           ;AtoD_100V.c: 65:     PORTC |=0x01;
  3507     0F70  1407               	bsf	7,0	;volatile
  3508     0F71                     l1182:
  3509                           
  3510                           ;AtoD_100V.c: 66:     PORTC &=~0x01;
  3511     0F71  30FE               	movlw	254
  3512     0F72  00FF               	movwf	btemp+1
  3513     0F73  087F               	movf	btemp+1,w
  3514     0F74  0587               	andwf	7,f	;volatile
  3515     0F75                     l1184:
  3516                           
  3517                           ;AtoD_100V.c: 67:     _delay((unsigned long)((100)*(6000000/4000.0)));
  3518     0F75  30C3               	movlw	195
  3519     0F76  00F1               	movwf	??_Lcd_displaydata+1
  3520     0F77  30CD               	movlw	205
  3521     0F78  00F0               	movwf	??_Lcd_displaydata
  3522     0F79                     u2267:
  3523     0F79  0BF0               	decfsz	??_Lcd_displaydata,f
  3524     0F7A  2F79               	goto	u2267
  3525     0F7B  0BF1               	decfsz	??_Lcd_displaydata+1,f
  3526     0F7C  2F79               	goto	u2267
  3527     0F7D                     l51:
  3528     0F7D  0008               	return
  3529     0F7E                     __end_of_Lcd_displaydata:
  3530                           
  3531                           	psect	text11
  3532     0F7E                     __ptext11:	
  3533 ;; *************** function _Lcd_command *****************
  3534 ;; Defined at:
  3535 ;;		line 69 in file "AtoD_100V.c"
  3536 ;; Parameters:    Size  Location     Type
  3537 ;;  cmd             1    wreg     unsigned char 
  3538 ;; Auto vars:     Size  Location     Type
  3539 ;;  cmd             1    2[COMMON] unsigned char 
  3540 ;; Return value:  Size  Location     Type
  3541 ;;                  1    wreg      void 
  3542 ;; Registers used:
  3543 ;;		wreg, status,2, status,0, btemp+1
  3544 ;; Tracked objects:
  3545 ;;		On entry : 0/0
  3546 ;;		On exit  : 0/0
  3547 ;;		Unchanged: 0/0
  3548 ;; Data sizes:     COMMON   BANK0   BANK1   BANK3   BANK2
  3549 ;;      Params:         0       0       0       0       0
  3550 ;;      Locals:         1       0       0       0       0
  3551 ;;      Temps:          2       0       0       0       0
  3552 ;;      Totals:         3       0       0       0       0
  3553 ;;Total ram usage:        3 bytes
  3554 ;; Hardware stack levels used: 1
  3555 ;; This function calls:
  3556 ;;		Nothing
  3557 ;; This function is called by:
  3558 ;;		_main
  3559 ;;		_Configuration
  3560 ;; This function uses a non-reentrant model
  3561 ;;
  3562                           
  3563     0F7E                     _Lcd_command:	
  3564                           ;psect for function _Lcd_command
  3565                           
  3566                           
  3567                           ;incstack = 0
  3568                           ; Regs used in _Lcd_command: [wreg+status,2+status,0+btemp+1]
  3569                           ;Lcd_command@cmd stored from wreg
  3570     0F7E  00F2               	movwf	Lcd_command@cmd
  3571     0F7F                     l1168:
  3572                           
  3573                           ;AtoD_100V.c: 70:     PORTC &=~0x08;
  3574     0F7F  30F7               	movlw	247
  3575     0F80  00FF               	movwf	btemp+1
  3576     0F81  087F               	movf	btemp+1,w
  3577     0F82  1283               	bcf	3,5	;RP0=0, select bank0
  3578     0F83  1303               	bcf	3,6	;RP1=0, select bank0
  3579     0F84  0587               	andwf	7,f	;volatile
  3580     0F85                     l1170:
  3581                           
  3582                           ;AtoD_100V.c: 71:     PORTD=cmd;
  3583     0F85  0872               	movf	Lcd_command@cmd,w
  3584     0F86  0088               	movwf	8	;volatile
  3585     0F87                     l1172:
  3586                           
  3587                           ;AtoD_100V.c: 72:     PORTC |=0x01;
  3588     0F87  1407               	bsf	7,0	;volatile
  3589     0F88                     l1174:
  3590                           
  3591                           ;AtoD_100V.c: 73:     PORTC &=~0x01;
  3592     0F88  30FE               	movlw	254
  3593     0F89  00FF               	movwf	btemp+1
  3594     0F8A  087F               	movf	btemp+1,w
  3595     0F8B  0587               	andwf	7,f	;volatile
  3596                           
  3597                           ;AtoD_100V.c: 74:     _delay((unsigned long)((100)*(6000000/4000.0)));
  3598     0F8C  30C3               	movlw	195
  3599     0F8D  00F1               	movwf	??_Lcd_command+1
  3600     0F8E  30CD               	movlw	205
  3601     0F8F  00F0               	movwf	??_Lcd_command
  3602     0F90                     u2277:
  3603     0F90  0BF0               	decfsz	??_Lcd_command,f
  3604     0F91  2F90               	goto	u2277
  3605     0F92  0BF1               	decfsz	??_Lcd_command+1,f
  3606     0F93  2F90               	goto	u2277
  3607     0F94                     l54:
  3608     0F94  0008               	return
  3609     0F95                     __end_of_Lcd_command:
  3610     007E                     btemp	set	126	;btemp
  3611     007E                     wtemp0	set	126
  3612                           
  3613                           	psect	config
  3614                           
  3615                           ;Config register CONFIG @ 0x2007
  3616                           ;	Oscillator Selection bits
  3617                           ;	FOSC = EXTRC, RC oscillator
  3618                           ;	Watchdog Timer Enable bit
  3619                           ;	WDTE = OFF, WDT disabled
  3620                           ;	Power-up Timer Enable bit
  3621                           ;	PWRTE = OFF, PWRT disabled
  3622                           ;	Brown-out Reset Enable bit
  3623                           ;	BOREN = OFF, BOR disabled
  3624                           ;	Low-Voltage (Single-Supply) In-Circuit Serial Programming Enable bit
  3625                           ;	LVP = OFF, RB3 is digital I/O, HV on MCLR must be used for programming
  3626                           ;	Data EEPROM Memory Code Protection bit
  3627                           ;	CPD = OFF, Data EEPROM code protection off
  3628                           ;	Flash Program Memory Write Enable bits
  3629                           ;	WRT = OFF, Write protection off; all program memory may be written to by EECON control
  3630                           ;	In-Circuit Debugger Mode bit
  3631                           ;	DEBUG = 0x1, unprogrammed default
  3632                           ;	Flash Program Memory Code Protection bit
  3633                           ;	CP = OFF, Code protection off
  3634     2007                     	org	8199
  3635     2007  3F3B               	dw	16187

Data Sizes:
    Strings     0
    Constant    0
    Data        3
    BSS         6
    Persistent  0
    Stack       0

Auto Spaces:
    Space          Size  Autos    Used
    COMMON           14     14      14
    BANK0            80     66      75
    BANK1            80      0       0
    BANK3            96      0       0
    BANK2            96      0       0

Pointer List with Targets:

    None.

Critical Paths under _main in COMMON

    _main->___xxtofl
    ___fltol->___xxtofl
    ___flmul->___xxtofl
    ___fldiv->___xxtofl
    _Lcd_printing->___lwdiv
    _Configuration->_Lcd_command
    _Configuration->_Lcd_displaydata

Critical Paths under _main in BANK0

    _main->___fltol
    ___fltol->___flmul
    ___flmul->___fldiv

Critical Paths under _main in BANK1

    None.

Critical Paths under _main in BANK3

    None.

Critical Paths under _main in BANK2

    None.

Call Graph Tables:

 ---------------------------------------------------------------------------------
 (Depth) Function   	        Calls       Base Space   Used Autos Params    Refs
 ---------------------------------------------------------------------------------
 (0) _main                                                 4     4      0    5411
                                             62 BANK0      4     4      0
                      _Configuration
                        _Lcd_command
                       _Lcd_printing
                            ___fldiv
                            ___flmul
                            ___fltol
                           ___xxtofl
 ---------------------------------------------------------------------------------
 (1) ___xxtofl                                            14    10      4     398
                                              0 COMMON    14    10      4
 ---------------------------------------------------------------------------------
 (1) ___fltol                                             10     6      4     305
                                             52 BANK0     10     6      4
                            ___fldiv (ARG)
                            ___flmul (ARG)
                           ___xxtofl (ARG)
 ---------------------------------------------------------------------------------
 (1) ___flmul                                             26    18      8    2417
                                             26 BANK0     26    18      8
                          __Umul8_16
                            ___fldiv (ARG)
                           ___xxtofl (ARG)
 ---------------------------------------------------------------------------------
 (2) __Umul8_16                                            9     7      2     799
                                              0 COMMON     9     7      2
 ---------------------------------------------------------------------------------
 (1) ___fldiv                                             26    18      8    1273
                                              0 BANK0     26    18      8
                           ___xxtofl (ARG)
 ---------------------------------------------------------------------------------
 (1) _Lcd_printing                                         9     7      2     952
                                              7 COMMON     2     0      2
                                              0 BANK0      7     7      0
                    _Lcd_displaydata
                            ___lwdiv
                            ___lwmod
 ---------------------------------------------------------------------------------
 (2) ___lwmod                                              5     1      4     311
                                              0 COMMON     5     1      4
 ---------------------------------------------------------------------------------
 (2) ___lwdiv                                              7     3      4     314
                                              0 COMMON     7     3      4
 ---------------------------------------------------------------------------------
 (1) _Configuration                                        2     2      0      44
                                              3 COMMON     2     2      0
                        _Lcd_command
                    _Lcd_displaydata
 ---------------------------------------------------------------------------------
 (2) _Lcd_displaydata                                      3     3      0      22
                                              0 COMMON     3     3      0
 ---------------------------------------------------------------------------------
 (1) _Lcd_command                                          3     3      0      22
                                              0 COMMON     3     3      0
 ---------------------------------------------------------------------------------
 Estimated maximum stack depth 2
 ---------------------------------------------------------------------------------

 Call Graph Graphs:

 _main (ROOT)
   _Configuration
     _Lcd_command
     _Lcd_displaydata
   _Lcd_command
   _Lcd_printing
     _Lcd_displaydata
     ___lwdiv
     ___lwmod
   ___fldiv
     ___xxtofl (ARG)
   ___flmul
     __Umul8_16
     ___fldiv (ARG)
     ___xxtofl (ARG)
   ___fltol
     ___fldiv (ARG)
     ___flmul (ARG)
     ___xxtofl (ARG)
   ___xxtofl

 Address spaces:
Name               Size   Autos  Total    Cost      Usage
BANK3               60      0       0       9        0.0%
BITBANK3            60      0       0       8        0.0%
SFR3                 0      0       0       4        0.0%
BITSFR3              0      0       0       4        0.0%
BANK2               60      0       0      11        0.0%
BITBANK2            60      0       0      10        0.0%
SFR2                 0      0       0       5        0.0%
BITSFR2              0      0       0       5        0.0%
BANK1               50      0       0       7        0.0%
BITBANK1            50      0       0       6        0.0%
SFR1                 0      0       0       2        0.0%
BITSFR1              0      0       0       2        0.0%
BANK0               50     42      4B       5       93.8%
BITBANK0            50      0       0       4        0.0%
SFR0                 0      0       0       1        0.0%
BITSFR0              0      0       0       1        0.0%
COMMON               E      E       E       1      100.0%
BITCOMMON            E      0       0       0        0.0%
CODE                 0      0       0       0        0.0%
DATA                 0      0      59      12        0.0%
ABS                  0      0      59       3        0.0%
NULL                 0      0       0       0        0.0%
STACK                0      0       0       2        0.0%
EEDATA             100      0       0       0        0.0%


Microchip Technology PIC Macro Assembler V2.41 build 20230208172133 
Symbol Table                                                                                   Wed Sep 27 21:00:53 2023

           ___fldiv@aexp 0039             ___fldiv@bexp 0038             ___fldiv@sign 0031  
                     l40 017E                       l51 0F7D                       l54 0F94  
                     l39 0175                       l48 0092                       l64 00F7  
    __Umul8_16@word_mpld 0076                      l501 049E                      l422 0FFF  
                    l343 015A                      l432 0045                      l336 016F  
                    l521 048A                      l346 016F                      l515 0418  
                    l560 0FBB                      l545 0753                      l539 07E3  
                    l558 0FA9                      l583 023A                      l585 02CF  
                    l499 0326                      l596 0299                      l597 02A5  
                    _Low 0064                      fsr0 0004                      indf 0000  
           ___flmul@aexp 004C             ___flmul@bexp 004D             ___flmul@sign 0047  
           ___flmul@temp 0052             ___flmul@prod 004E             ___fltol@exp1 005D  
                   l1200 0FE7                     l1202 0FED                     l1204 0FEE  
                   l1220 0020                     l1212 000C                     l1300 011F  
                   l1206 0FF5                     l1222 0024                     l1214 0012  
                   l1230 0041                     l1302 0120                     l1208 0FFB  
                   l1224 002E                     l1216 0015                     l1400 039C  
                   l1240 0FA3                     l1304 0128                     l1170 0F85  
                   l1250 004A                     l1226 0034                     l1218 001C  
                   l1410 03C7                     l1402 039D                     l1330 02D0  
                   l1242 0FB2                     l1234 0F96                     l1314 0136  
                   l1306 012A                     l1172 0F87                     l1180 0F70  
                   l1260 0070                     l1252 004B                     l1228 003B  
                   l1420 03E4                     l1404 03A6                     l1412 03CB  
                   l1340 02E3                     l1332 02D5                     l1244 0FB7  
                   l1236 0F98                     l1500 04D6                     l1324 014F  
                   l1316 013F                     l1308 012E                     l1174 0F88  
                   l1182 0F71                     l1262 007E                     l1254 0054  
                   l1190 0FC4                     l1270 009E                     l1430 03FC  
                   l1422 03E8                     l1414 03D1                     l1406 03B8  
                   l1350 02FB                     l1342 02E8                     l1334 02D9  
                   l1238 0F9F                     l1510 04EB                     l1502 04D7  
                   l1326 015F                     l1318 0148                     l1168 0F7F  
                   l1184 0F75                     l1176 0F6B                     l1264 0084  
                   l1256 005A                     l1248 0046                     l1192 0FC7  
                   l1272 00B4                     l1440 041D                     l1432 03FD  
                   l1424 03E9                     l1416 03D9                     l1408 03B9  
                   l1360 030E                     l1352 0300                     l1344 02F0  
                   l1336 02DD                     l1600 07B5                     l1520 0506  
                   l1512 04F3                     l1504 04DC                     l1328 0164  
                   l1178 0F6E                     l1258 0068                     l1194 0FCE  
                   l1186 0FBC                     l1290 00F1                     l1274 00BE  
                   l1266 0093                     l1442 0422                     l1450 0453  
                   l1434 0401                     l1426 03F2                     l1418 03DB  
                   l1370 032E                     l1362 0313                     l1354 0304  
                   l1346 02F1                     l1338 02DE                     l1610 07D2  
                   l1602 07BF                     l1530 0582                     l1522 0514  
                   l1514 04F8                     l1506 04E1                     l1196 0FD2  
                   l1188 0FBE                     l1284 00DB                     l1276 00CF  
                   l1268 009B                     l1460 0489                     l1452 0460  
                   l1444 0430                     l1436 0415                     l1428 03F8  
                   l1380 034C                     l1372 033A                     l1364 031B  
                   l1356 0308                     l1348 02F3                     l1604 07C1  
                   l1612 07D7                     l1540 05EE                     l1532 059E  
                   l1524 0521                     l1516 04FD                     l1508 04E9  
                   l1292 00F8                     l1620 021E                     l1198 0FD6  
                   l1286 00E5                     l1278 00D5                     l1462 048E  
                   l1454 046E                     l1446 0434                     l1390 0377  
                   l1374 033E                     l1366 031C                     l1358 0309  
                   l1614 07DB                     l1606 07CD                     l1550 0678  
                   l1542 05FC                     l1534 05BA                     l1526 053C  
                   l1294 0103                     l1630 024B                     l1622 0222  
                   l1288 00ED                     l1464 0492                     l1456 047D  
                   l1448 044D                     l1392 037F                     l1384 0355  
                   l1368 031E                     l1608 07D1                     l1560 0708  
                   l1552 0686                     l1544 0619                     l1536 05C3  
                   l1528 0558                     l1480 04A8                     l1640 0266  
                   l1632 024E                     l1624 0232                     l1466 0494  
                   l1458 0481                     l1394 0381                     l1386 0367  
                   l1378 0347                     l1570 072D                     l1562 0716  
                   l1554 06B1                     l1546 0630                     l1538 05D1  
                   l1490 04BF                     l1482 04AC                     l1298 010C  
                   l1650 0293                     l1642 0274                     l1634 0252  
                   l1626 0242                     l1618 0219                     l1468 0498  
                   l1396 0386                     l1388 036F                     l1580 0750  
                   l1564 071F                     l1572 0733                     l1556 06D7  
                   l1548 064D                     l1492 04C1                     l1484 04AD  
                   l1476 049F                     l1660 02C6                     l1652 029D  
                   l1644 027D                     l1636 025B                     l1398 0398  
                   l1590 076F                     l1574 0737                     l1566 0723  
                   l1558 06FF                     l1494 04C9                     l1486 04B2  
                   l1478 04A4                     l1662 02C7                     l1654 02A7  
                   l1646 0284                     l1638 0262                     l1670 0182  
                   l1592 0788                     l1584 0758                     l1576 0738  
                   l1568 0724                     l1496 04CE                     l1488 04B7  
                   l1656 02BD                     l1648 028F                     l1672 0194  
                   l1586 075D                     l1594 078E                     l1578 073C  
                   l1498 04D2                     l1658 02C2                     l1674 01B1  
                   l1666 0170                     l1596 079B                     l1588 076B  
                   l1676 0200                     l1668 017B                     l1598 07A6  
                   l1678 0209                     u1110 0FC4                     u1111 0FC3  
                   u1200 0024                     u2000 076F                     u1201 0023  
                   u2001 076E                     u1130 0FD6                     u1210 002E  
                   u2010 077E                     u1131 0FD5                     u1211 002D  
                   u2020 079B                     u1300 011A                     u1125 0FC8  
                   u2021 079A                     u1150 0FE7                     u1230 0041  
                   u2030 07B5                     u1310 012E                     u2110 0283  
                   u1151 0FE6                     u1231 0040                     u1215 002A  
                   u2031 07B4                     u2015 0779                     u1311 012D  
                   u2111 0282                     u1400 02E3                     u1240 0FA3  
                   u2040 07D1                     u1320 0135                     u1145 0FD7  
                   u1225 0035                     u1401 02E2                     u1241 0FA2  
                   u2041 07D0                     u2025 0797                     u1321 0134  
                   u1305 0115                     u2105 0275                     u1170 0FFB  
                   u1410 02E8                     u2130 0293                     u2050 021E  
                   u1171 0FFA                     u1155 0FE3                     u1411 02E7  
                   u2035 07B1                     u2131 0292                     u2051 021D  
                   u1180 0012                     u1500 039C                     u1420 0308  
                   u1260 0FB7                     u1340 0147                     u2140 0299  
                   u2060 0222                     u1165 0FEF                     u1181 0011  
                   u1501 039B                     u1421 0307                     u1261 0FB6  
                   u1341 0146                     u2141 0298                     u2125 0288  
                   u2061 0221                     u2205 0199                     u1270 00D5  
                   u1430 030E                     u1350 014E                     u2150 029D  
                   u2070 0242                     u1271 00D4                     u1431 030D  
                   u1255 0FAA                     u1351 014D                     u1335 0137  
                   u2151 029C                     u2071 0241                     u1280 00F1  
                   u1600 0415                     u1520 03B8                     u1440 0313  
                   u2160 02B2                     u1281 00F0                     u1601 0414  
                   u1521 03B7                     u1441 0312                     u2217 020F  
                   u1610 041C                     u1530 03D1                     u1450 032E  
                   u1370 015F                     u1290 0103                     u2170 02C2  
                   u2090 0261                     u2227 005E                     u1195 0016  
                   u1611 041B                     u1531 03D0                     u1515 039F  
                   u1451 032D                     u1371 015E                     u1291 0102  
                   u2171 02C1                     u2091 0260                     u1620 0422  
                   u1540 03D9                     u1460 034C                     u1700 04B7  
                   u1380 0164                     u2180 02C6                     u2237 006C  
                   u1621 0421                     u1541 03D8                     u1525 03B4  
                   u1461 034B                     u1701 04B6                     u1381 0163  
                   u1365 0151                     u2181 02C5                     u2165 02AD  
                   u2085 0253                     u1630 0434                     u1470 0386  
                   u1390 02DD                     u1710 04D6                     u2190 0182  
                   u2247 007A                     u1631 0433                     u1471 0385  
                   u1391 02DC                     u1711 04D5                     u2191 0181  
                   u1640 0443                     u1560 03E8                     u1720 04DC  
                   u2257 0088                     u1561 03E7                     u1721 04DB  
                   u1650 0460                     u1730 04E1                     u2267 0F79  
                   u1651 045F                     u1555 03DD                     u1811 05E0  
                   u1731 04E0                     u1660 047D                     u1580 03FC  
                   u1812 05E7                     u1740 04F8                     u2277 0F90  
                   u1661 047C                     u1645 043E                     u1581 03FB  
                   u1485 0388                     u1901 06F1                     u1821 060B  
                   u1813 05EE                     u1805 05BC                     u1741 04F7  
                   u1670 0492                     u1590 0401                     u1902 06F8  
                   u1822 0612                     u1750 04FD                     u1671 0491  
                   u1655 045C                     u1591 0400                     u1575 03EB  
                   u1495 0391                     u1903 06FF                     u1823 0619  
                   u1751 04FC                     u1680 04AC                     u1665 0479  
                   u1841 063F                     u1761 054A                     u1681 04AB  
                   u1930 0723                     u1842 0646                     u1762 0551  
                   u1690 04B2                     u1931 0722                     u1915 0701  
                   u1851 066A                     u1843 064D                     u1835 061B  
                   u1771 0566                     u1763 0558                     u1691 04B1  
                   u1852 0671                     u1772 056D                     u1925 0718  
                   u1861 0695                     u1853 0678                     u1781 0590  
                   u1773 0574                     u1950 0737                     u1870 06BD  
                   u1862 069C                     u1782 0597                     u1951 0736  
                   u1863 06A3                     u1791 05AC                     u1783 059E  
                   u1960 073C                     u1792 05B3                     u1961 073B  
                   u1945 0726                     u1881 06C9                     u1793 05BA  
                   u1970 0750                     u1890 06E5                     u1882 06D0  
                   u1971 074F                     u1883 06D7                     u1875 06B8  
                   u1980 0757                     u1981 0756                     u1990 075D  
                   u1991 075C                     u1895 06E0                     _High 0066  
                   _main 0170                     btemp 007E                     start 0000  
        ___fldiv@new_exp 0032      __end_of_Lcd_command 0F95  __end_of_Lcd_displaydata 0F7E  
          ___fltol@sign1 005C                    ?_main 0070          __end_of___fldiv 049F  
        __end_of___flmul 07E4          __end_of___fltol 0170          __end_of___lwdiv 1000  
        __end_of___lwmod 0046                    _PORTC 0007                    _PORTD 0008  
                  _TRISA 0085                    _TRISC 0087                    _TRISD 0088  
                  status 0003                    wtemp0 007E          __initialization 07E4  
           __end_of_main 0218                   ??_main 005E     __end_of_Lcd_printing 00F8  
                 _ADCON0 001F                   _ADCON1 009F                   _ADRESH 001E  
                 _ADRESL 009E              _Lcd_command 0F7E         __end_of___xxtofl 02D0  
                 _Result 0062                ??___fldiv 0028                ??___flmul 0042  
              ??___fltol 0058                ??___lwdiv 0074                ??___lwmod 0074  
       ?_Lcd_displaydata 0070      Lcd_displaydata@data 0072             ___xxtofl@arg 007A  
           ___xxtofl@exp 0079             ___xxtofl@val 0070  __end_of__initialization 07FC  
             ___fltol@f1 0054           __pcstackCOMMON 0070             __pidataBANK0 0009  
             __pbssBANK0 0062    __end_of_Configuration 0093        __end_of__Umul8_16 0FBC  
             __pmaintext 0170                ?___xxtofl 0070             _Lcd_printing 0093  
                ___fldiv 02D0                  ___flmul 049F                  ___fltol 00F8  
                ___lwdiv 0FBC                  ___lwmod 000C                  __ptext1 0218  
                __ptext2 00F8                  __ptext3 049F                  __ptext4 0F95  
                __ptext5 02D0                  __ptext6 0093                  __ptext7 000C  
                __ptext8 0FBC                  __ptext9 0046               ??___xxtofl 0074  
   end_of_initialization 07FC             ?_Lcd_command 0070           Lcd_command@cmd 0072  
          ___xxtofl@sign 0078              ___fldiv@grs 0034              ___fldiv@rem 002D  
            ___flmul@grs 0048      start_initialization 07E4                __Umul8_16 0F95  
            __pdataBANK0 0068                ___fldiv@a 0020                ___fldiv@b 0024  
              ___flmul@a 003E                ___flmul@b 003A                ___latbits 0002  
          __pcstackBANK0 0020         ___lwdiv@dividend 0072                 ?___fldiv 0020  
               ?___flmul 003A                 ?___fltol 0054               ?__Umul8_16 0070  
               ?___lwdiv 0070                 ?___lwmod 0070         ___lwdiv@quotient 0074  
      ??_Lcd_displaydata 0070            _Configuration 0046              ??__Umul8_16 0072  
               ___xxtofl 0218          ___lwdiv@divisor 0070          ___lwdiv@counter 0076  
               __ptext10 0F6A                 __ptext11 0F7E           ?_Configuration 0070  
          Lcd_printing@i 0025         ___lwmod@dividend 0072            ?_Lcd_printing 0077  
 __Umul8_16@multiplicand 0070          ___lwmod@divisor 0070          ___lwmod@counter 0074  
        _Lcd_displaydata 0F6A          ??_Configuration 0073         Lcd_printing@F896 0068  
          ??_Lcd_command 0070        Lcd_printing@space 0020        Lcd_printing@value 0077  
   __Umul8_16@multiplier 0078         Lcd_printing@temp 0023           ??_Lcd_printing 0079  
      __Umul8_16@product 0074  
